   1               		.file	"main.c"
   2               	__SP_H__ = 0x3e
   3               	__SP_L__ = 0x3d
   4               	__SREG__ = 0x3f
   5               	__tmp_reg__ = 0
   6               	__zero_reg__ = 1
   7               		.text
   8               	.Ltext0:
   9               		.cfi_sections	.debug_frame
  11               	checksum:
  12               	.LFB34:
  13               		.file 1 "main.c"
   1:main.c        **** /*
   2:main.c        ****  * modified AVR1612 appnote for PDI programming
   3:main.c        ****  * modifications by hunz@mailbox.org
   4:main.c        ****  * see license conditions for original appnote below
   5:main.c        ****  * modified parts may be redistributed under the
   6:main.c        ****  * same conditions as the original code from Atmel
   7:main.c        ****  */
   8:main.c        **** 
   9:main.c        **** /**
  10:main.c        ****  * \file main.c
  11:main.c        ****  *
  12:main.c        ****  * \brief PDI programmer unit test.
  13:main.c        ****  *
  14:main.c        ****  * This file defines various status codes returned by functions,
  15:main.c        ****  * indicating success or failure as well as what kind of failure.
  16:main.c        ****  *
  17:main.c        ****  * Copyright (C) 2009 Atmel Corporation. All rights reserved.
  18:main.c        ****  *
  19:main.c        ****  * \page License
  20:main.c        ****  *
  21:main.c        ****  * Redistribution and use in source and binary forms, with or without
  22:main.c        ****  * modification, are permitted provided that the following conditions are met:
  23:main.c        ****  *
  24:main.c        ****  * 1. Redistributions of source code must retain the above copyright notice,
  25:main.c        ****  * this list of conditions and the following disclaimer.
  26:main.c        ****  *
  27:main.c        ****  * 2. Redistributions in binary form must reproduce the above copyright notice,
  28:main.c        ****  * this list of conditions and the following disclaimer in the documentation
  29:main.c        ****  * and/or other materials provided with the distribution.
  30:main.c        ****  *
  31:main.c        ****  * 3. The name of Atmel may not be used to endorse or promote products derived
  32:main.c        ****  * from this software without specific prior written permission.
  33:main.c        ****  *
  34:main.c        ****  * 4. This software may only be redistributed and used in connection with an
  35:main.c        ****  * Atmel AVR product.
  36:main.c        ****  *
  37:main.c        ****  * THIS SOFTWARE IS PROVIDED BY ATMEL "AS IS" AND ANY EXPRESS OR IMPLIED
  38:main.c        ****  * WARRANTIES, INCLUDING, BUT NOT LIMITED TO, THE IMPLIED WARRANTIES OF
  39:main.c        ****  * MERCHANTABILITY, FITNESS FOR A PARTICULAR PURPOSE AND NON-INFRINGEMENT ARE
  40:main.c        ****  * EXPRESSLY AND SPECIFICALLY DISCLAIMED. IN NO EVENT SHALL ATMEL BE LIABLE FOR
  41:main.c        ****  * ANY DIRECT, INDIRECT, INCIDENTAL, SPECIAL, EXEMPLARY, OR CONSEQUENTIAL
  42:main.c        ****  * DAMAGES (INCLUDING, BUT NOT LIMITED TO, PROCUREMENT OF SUBSTITUTE GOODS OR
  43:main.c        ****  * SERVICES; LOSS OF USE, DATA, OR PROFITS; OR BUSINESS INTERRUPTION) HOWEVER
  44:main.c        ****  * CAUSED AND ON ANY THEORY OF LIABILITY, WHETHER IN CONTRACT, STRICT
  45:main.c        ****  * LIABILITY, OR TORT (INCLUDING NEGLIGENCE OR OTHERWISE) ARISING IN ANY WAY
  46:main.c        ****  * OUT OF THE USE OF THIS SOFTWARE, EVEN IF ADVISED OF THE POSSIBILITY OF SUCH
  47:main.c        ****  * DAMAGE.
  48:main.c        ****  */
  49:main.c        **** #include "config.h"
  50:main.c        **** 
  51:main.c        **** /* PDI driver includes */
  52:main.c        **** #include <atxmega128a1_nvm_regs.h>
  53:main.c        **** #include <xmega_pdi_nvm.h>
  54:main.c        **** 
  55:main.c        **** #include <util/delay.h>
  56:main.c        **** 
  57:main.c        **** #include <status_codes.h>
  58:main.c        **** 
  59:main.c        **** #include <avr/interrupt.h>
  60:main.c        **** #include <avr/power.h>
  61:main.c        **** //#include <avr/sleep.h>
  62:main.c        **** 
  63:main.c        **** /* 1: Mega48
  64:main.c        ****  * 2: AVR SPI code
  65:main.c        ****  * 3: LPC SPI code
  66:main.c        ****  */ 
  67:main.c        **** 
  68:main.c        **** /* extra signal for ready/busy: PB1 */
  69:main.c        **** 
  70:main.c        **** #define SPI_BUFSIZE		(1+4+2+1+256+5)
  71:main.c        **** static volatile uint8_t spibuf[SPI_BUFSIZE] = { 0 };
  72:main.c        **** static volatile uint8_t *spiptr = spibuf;
  73:main.c        **** 
  74:main.c        **** #define STATUS_READY	0x80
  75:main.c        **** #define STATUS_ERROR	0x40
  76:main.c        **** #define STATUS_ERRORMASK	0x3F
  77:main.c        **** 
  78:main.c        **** static volatile uint8_t status =0 ;
  79:main.c        **** 
  80:main.c        **** #define CMD_NEW			0x80
  81:main.c        **** #define CMD_MASK		0x3f
  82:main.c        **** 
  83:main.c        **** #define ID_MAGIC1		0xc2
  84:main.c        **** #define ID_MAGIC2		0xd8
  85:main.c        **** 
  86:main.c        **** #define VERSION_MSB		1
  87:main.c        **** #define VERSION_LSB		0
  88:main.c        **** 
  89:main.c        **** /* normal non-buffer commands */
  90:main.c        **** enum {
  91:main.c        **** 	CMD_NOP 		= 0x00,
  92:main.c        **** 	CMD_INIT 		= 0x01,
  93:main.c        **** 	CMD_DEINIT 		= 0x02,
  94:main.c        **** 	CMD_CHIPERASE 	= 0x03,
  95:main.c        **** 	CMD_WRITEFUSE	= 0x04,
  96:main.c        **** 	CMD_WRITEUSERSIGN	= 0x05,
  97:main.c        **** 	
  98:main.c        **** 	CMD_ID 			= 0x10,
  99:main.c        **** 	CMD_READ 		= 0x11,
 100:main.c        **** };
 101:main.c        **** 
 102:main.c        **** #define CMD_BUFFER		0x20
 103:main.c        **** 
 104:main.c        **** #define BUFFER_ERASE	0x10
 105:main.c        **** 
 106:main.c        **** enum {
 107:main.c        **** 	WRMODE_NONE			= 0,
 108:main.c        **** 	WRMODE_ERASE		= 4,
 109:main.c        **** 	WRMODE_WRITE		= 8,
 110:main.c        **** 	WRMODE_ERASE_WRITE	= 0xc
 111:main.c        **** };
 112:main.c        **** 
 113:main.c        **** enum {
 114:main.c        **** 	DST_FLASH 		= 0,
 115:main.c        **** 	DST_FLASH_APP 	= 1,
 116:main.c        **** 	DST_FLASH_BOOT	= 2,
 117:main.c        **** 	DST_EEPROM		= 3
 118:main.c        **** };
 119:main.c        **** 
 120:main.c        **** #define DST_MASK		3
 121:main.c        **** 
 122:main.c        **** static volatile uint8_t rx_complete=0;
 123:main.c        **** 
 124:main.c        **** ISR(INT0_vect)
 125:main.c        **** {
 126:main.c        **** 	uint8_t edge=(EICRA & (1<<ISC00));
 127:main.c        **** 	
 128:main.c        **** 	// falling edge: load SPDR with current status, set pointer if not busy
 129:main.c        **** 	if(!edge) {
 130:main.c        **** 		SPDR = status;
 131:main.c        **** 		spiptr = (status&STATUS_READY) ? spibuf : NULL;
 132:main.c        **** 		status = 0; // clear ready flag
 133:main.c        **** 		PORTB &= ~(1<<PB1); // set busy flag
 134:main.c        **** 		PORTD|=(1<<PD7); // busy LED
 135:main.c        **** 	}
 136:main.c        **** 	else
 137:main.c        **** 		rx_complete=1;
 138:main.c        **** 	
 139:main.c        **** 	EICRA = edge ^ (1<<ISC00);
 140:main.c        **** }
 141:main.c        **** 
 142:main.c        **** ISR(SPI_STC_vect)
 143:main.c        **** {
 144:main.c        **** 	if(spiptr) {
 145:main.c        **** 		uint8_t tmp = SPDR;
 146:main.c        **** 		SPDR = *spiptr;
 147:main.c        **** 		*spiptr = tmp;
 148:main.c        **** 		spiptr++;
 149:main.c        **** 		if(spiptr >= (spibuf+SPI_BUFSIZE))
 150:main.c        **** 			spiptr=NULL;
 151:main.c        **** 	}
 152:main.c        **** 	else
 153:main.c        **** 		SPDR = status;
 154:main.c        **** }
 155:main.c        **** 
 156:main.c        **** static uint8_t pdi_connected = 0;
 157:main.c        **** 
 158:main.c        **** /* cmd bits 3,2: write mode (0: nop, 1: erase, 2: write, 3: erase + write)
 159:main.c        ****  * cmd bits 1,0: dst (0: flash, 1: app, 2: boot, 3: eeprom)
 160:main.c        ****  */
 161:main.c        **** static const uint8_t write_cmds[12] = {
 162:main.c        **** 	/* erase */
 163:main.c        **** 	XNVM_CMD_ERASE_FLASH_PAGE,
 164:main.c        **** 	XNVM_CMD_ERASE_APP_PAGE,
 165:main.c        **** 	XNVM_CMD_ERASE_BOOT_PAGE,
 166:main.c        **** 	XNVM_CMD_ERASE_EEPROM_PAGE,
 167:main.c        **** 	
 168:main.c        **** 	/* write */
 169:main.c        **** 	XNVM_CMD_WRITE_FLASH_PAGE,
 170:main.c        **** 	XNVM_CMD_WRITE_APP_SECTION,
 171:main.c        **** 	XNVM_CMD_WRITE_BOOT_PAGE,
 172:main.c        **** 	XNVM_CMD_WRITE_EEPROM_PAGE,
 173:main.c        **** 	
 174:main.c        **** 	/* erase + write */
 175:main.c        **** 	XNVM_CMD_ERASE_AND_WRITE_FLASH_PAGE,
 176:main.c        **** 	XNVM_CMD_ERASE_AND_WRITE_APP_SECTION,
 177:main.c        **** 	XNVM_CMD_ERASE_AND_WRITE_BOOT_PAGE,
 178:main.c        **** 	XNVM_CMD_ERASE_AND_WRITE_EEPROM
 179:main.c        **** };
 180:main.c        **** 
 181:main.c        **** static uint8_t checksum(const volatile uint8_t *d, uint16_t len) {
  14               		.loc 1 181 0
  15               		.cfi_startproc
  16               	.LVL0:
  17               	/* prologue: function */
  18               	/* frame size = 0 */
  19               	/* stack size = 0 */
  20               	.L__stack_usage = 0
  21 0000 FC01      		movw r30,r24
  22               	.LVL1:
  23 0002 680F      		add r22,r24
  24 0004 791F      		adc r23,r25
  25               	.LVL2:
 182:main.c        **** 	uint8_t val = 0x55;
  26               		.loc 1 182 0
  27 0006 85E5      		ldi r24,lo8(85)
  28               	.LVL3:
  29               	.L2:
 183:main.c        **** 	for(;len;len--,d++)
  30               		.loc 1 183 0 discriminator 1
  31 0008 E617      		cp r30,r22
  32 000a F707      		cpc r31,r23
  33 000c 01F0      		breq .L5
 184:main.c        **** 		val ^= *d;
  34               		.loc 1 184 0 discriminator 2
  35 000e 9191      		ld r25,Z+
  36               	.LVL4:
  37 0010 8927      		eor r24,r25
  38               	.LVL5:
  39 0012 00C0      		rjmp .L2
  40               	.LVL6:
  41               	.L5:
  42               	/* epilogue start */
 185:main.c        **** 	return val;
 186:main.c        **** }
  43               		.loc 1 186 0
  44 0014 0895      		ret
  45               		.cfi_endproc
  46               	.LFE34:
  48               	.global	__vector_1
  50               	__vector_1:
  51               	.LFB32:
 125:main.c        **** 	uint8_t edge=(EICRA & (1<<ISC00));
  52               		.loc 1 125 0
  53               		.cfi_startproc
  54 0016 1F92      		push r1
  55               	.LCFI0:
  56               		.cfi_def_cfa_offset 3
  57               		.cfi_offset 1, -2
  58 0018 0F92      		push r0
  59               	.LCFI1:
  60               		.cfi_def_cfa_offset 4
  61               		.cfi_offset 0, -3
  62 001a 0FB6      		in r0,__SREG__
  63 001c 0F92      		push r0
  64 001e 1124      		clr __zero_reg__
  65 0020 2F93      		push r18
  66               	.LCFI2:
  67               		.cfi_def_cfa_offset 5
  68               		.cfi_offset 18, -4
  69 0022 8F93      		push r24
  70               	.LCFI3:
  71               		.cfi_def_cfa_offset 6
  72               		.cfi_offset 24, -5
  73 0024 9F93      		push r25
  74               	.LCFI4:
  75               		.cfi_def_cfa_offset 7
  76               		.cfi_offset 25, -6
  77               	/* prologue: Signal */
  78               	/* frame size = 0 */
  79               	/* stack size = 6 */
  80               	.L__stack_usage = 6
 126:main.c        **** 	
  81               		.loc 1 126 0
  82 0026 8091 6900 		lds r24,105
  83               	.LVL7:
 129:main.c        **** 		SPDR = status;
  84               		.loc 1 129 0
  85 002a 282F      		mov r18,r24
  86 002c 2170      		andi r18,lo8(1)
  87               	.LVL8:
  88 002e 80FD      		sbrc r24,0
  89 0030 00C0      		rjmp .L7
 130:main.c        **** 		spiptr = (status&STATUS_READY) ? spibuf : NULL;
  90               		.loc 1 130 0
  91 0032 8091 0000 		lds r24,status
  92 0036 8EBD      		out 0x2e,r24
 131:main.c        **** 		status = 0; // clear ready flag
  93               		.loc 1 131 0
  94 0038 8091 0000 		lds r24,status
  95 003c 87FF      		sbrs r24,7
  96 003e 00C0      		rjmp .L10
  97 0040 80E0      		ldi r24,lo8(spibuf)
  98 0042 90E0      		ldi r25,hi8(spibuf)
  99 0044 00C0      		rjmp .L8
 100               	.L10:
 101 0046 80E0      		ldi r24,0
 102 0048 90E0      		ldi r25,0
 103               	.L8:
 131:main.c        **** 		status = 0; // clear ready flag
 104               		.loc 1 131 0 is_stmt 0 discriminator 1
 105 004a 9093 0000 		sts spiptr+1,r25
 106 004e 8093 0000 		sts spiptr,r24
 132:main.c        **** 		PORTB &= ~(1<<PB1); // set busy flag
 107               		.loc 1 132 0 is_stmt 1 discriminator 1
 108 0052 1092 0000 		sts status,__zero_reg__
 133:main.c        **** 		PORTD|=(1<<PD7); // busy LED
 109               		.loc 1 133 0 discriminator 1
 110 0056 2998      		cbi 0x5,1
 134:main.c        **** 	}
 111               		.loc 1 134 0 discriminator 1
 112 0058 5F9A      		sbi 0xb,7
 113 005a 00C0      		rjmp .L9
 114               	.L7:
 137:main.c        **** 	
 115               		.loc 1 137 0
 116 005c 81E0      		ldi r24,lo8(1)
 117 005e 8093 0000 		sts rx_complete,r24
 118               	.L9:
 139:main.c        **** }
 119               		.loc 1 139 0
 120 0062 81E0      		ldi r24,lo8(1)
 121 0064 8227      		eor r24,r18
 122 0066 8093 6900 		sts 105,r24
 123               	/* epilogue start */
 140:main.c        **** 
 124               		.loc 1 140 0
 125 006a 9F91      		pop r25
 126 006c 8F91      		pop r24
 127 006e 2F91      		pop r18
 128               	.LVL9:
 129 0070 0F90      		pop r0
 130 0072 0FBE      		out __SREG__,r0
 131 0074 0F90      		pop r0
 132 0076 1F90      		pop r1
 133 0078 1895      		reti
 134               		.cfi_endproc
 135               	.LFE32:
 137               	.global	__vector_17
 139               	__vector_17:
 140               	.LFB33:
 143:main.c        **** 	if(spiptr) {
 141               		.loc 1 143 0
 142               		.cfi_startproc
 143 007a 1F92      		push r1
 144               	.LCFI5:
 145               		.cfi_def_cfa_offset 3
 146               		.cfi_offset 1, -2
 147 007c 0F92      		push r0
 148               	.LCFI6:
 149               		.cfi_def_cfa_offset 4
 150               		.cfi_offset 0, -3
 151 007e 0FB6      		in r0,__SREG__
 152 0080 0F92      		push r0
 153 0082 1124      		clr __zero_reg__
 154 0084 8F93      		push r24
 155               	.LCFI7:
 156               		.cfi_def_cfa_offset 5
 157               		.cfi_offset 24, -4
 158 0086 9F93      		push r25
 159               	.LCFI8:
 160               		.cfi_def_cfa_offset 6
 161               		.cfi_offset 25, -5
 162 0088 EF93      		push r30
 163               	.LCFI9:
 164               		.cfi_def_cfa_offset 7
 165               		.cfi_offset 30, -6
 166 008a FF93      		push r31
 167               	.LCFI10:
 168               		.cfi_def_cfa_offset 8
 169               		.cfi_offset 31, -7
 170               	/* prologue: Signal */
 171               	/* frame size = 0 */
 172               	/* stack size = 7 */
 173               	.L__stack_usage = 7
 144:main.c        **** 		uint8_t tmp = SPDR;
 174               		.loc 1 144 0
 175 008c E091 0000 		lds r30,spiptr
 176 0090 F091 0000 		lds r31,spiptr+1
 177 0094 3097      		sbiw r30,0
 178 0096 01F0      		breq .L12
 179               	.LBB4:
 145:main.c        **** 		SPDR = *spiptr;
 180               		.loc 1 145 0
 181 0098 8EB5      		in r24,0x2e
 182               	.LVL10:
 146:main.c        **** 		*spiptr = tmp;
 183               		.loc 1 146 0
 184 009a 9081      		ld r25,Z
 185 009c 9EBD      		out 0x2e,r25
 147:main.c        **** 		spiptr++;
 186               		.loc 1 147 0
 187 009e E091 0000 		lds r30,spiptr
 188 00a2 F091 0000 		lds r31,spiptr+1
 189 00a6 8193      		st Z+,r24
 149:main.c        **** 			spiptr=NULL;
 190               		.loc 1 149 0
 191 00a8 80E0      		ldi r24,hi8(spibuf+269)
 192 00aa E030      		cpi r30,lo8(spibuf+269)
 193 00ac F807      		cpc r31,r24
 194               	.LVL11:
 195 00ae 00F4      		brsh .L13
 148:main.c        **** 		if(spiptr >= (spibuf+SPI_BUFSIZE))
 196               		.loc 1 148 0
 197 00b0 F093 0000 		sts spiptr+1,r31
 198 00b4 E093 0000 		sts spiptr,r30
 199               	.LVL12:
 200 00b8 00C0      		rjmp .L11
 201               	.LVL13:
 202               	.L13:
 150:main.c        **** 	}
 203               		.loc 1 150 0
 204 00ba 1092 0000 		sts spiptr+1,__zero_reg__
 205 00be 1092 0000 		sts spiptr,__zero_reg__
 206               	.LVL14:
 207 00c2 00C0      		rjmp .L11
 208               	.LVL15:
 209               	.L12:
 210               	.LBE4:
 153:main.c        **** }
 211               		.loc 1 153 0
 212 00c4 8091 0000 		lds r24,status
 213 00c8 8EBD      		out 0x2e,r24
 214               	.L11:
 215               	/* epilogue start */
 154:main.c        **** 
 216               		.loc 1 154 0
 217 00ca FF91      		pop r31
 218 00cc EF91      		pop r30
 219 00ce 9F91      		pop r25
 220 00d0 8F91      		pop r24
 221 00d2 0F90      		pop r0
 222 00d4 0FBE      		out __SREG__,r0
 223 00d6 0F90      		pop r0
 224 00d8 1F90      		pop r1
 225 00da 1895      		reti
 226               		.cfi_endproc
 227               	.LFE33:
 229               		.section	.text.startup,"ax",@progbits
 230               	.global	main
 232               	main:
 233               	.LFB37:
 187:main.c        **** 
 188:main.c        **** static uint8_t cmd_buffer(uint32_t addr, volatile uint8_t *d, uint16_t len) {
 189:main.c        **** 	uint8_t cmd = spibuf[0];
 190:main.c        **** 	uint8_t wr_cmd = cmd&0xf;
 191:main.c        **** 	uint8_t dst_eeprom = ((cmd&DST_MASK)==DST_EEPROM);
 192:main.c        **** 	enum status_code ret = STATUS_OK;
 193:main.c        **** 	
 194:main.c        **** 	/* buffer erase flag */
 195:main.c        **** 	if(cmd & BUFFER_ERASE) {
 196:main.c        **** 		/* erase buffer */
 197:main.c        **** 		ret = xnvm_erase_buffer(dst_eeprom, WAIT_RETRIES_NUM);
 198:main.c        **** 		if(ret != STATUS_OK)
 199:main.c        **** 			return ret;
 200:main.c        **** 		/* start load buffer */
 201:main.c        **** 		ret = xnvm_ctrl_cmd_write(dst_eeprom ? XNVM_CMD_LOAD_EEPROM_PAGE_BUFFER : XNVM_CMD_LOAD_FLASH_PAG
 202:main.c        **** 		if(ret != STATUS_OK)
 203:main.c        **** 			return ret;
 204:main.c        **** 		ret = xnvm_st_ptr(addr);
 205:main.c        **** 		if(ret != STATUS_OK)
 206:main.c        **** 			return ret;
 207:main.c        **** 	}
 208:main.c        **** 	
 209:main.c        **** 	/* load buffer */
 210:main.c        **** 	if(len) {
 211:main.c        **** 		ret = xnvm_load_buffer(d,len);
 212:main.c        **** 		if(ret != STATUS_OK)
 213:main.c        **** 			return ret;
 214:main.c        **** 	}
 215:main.c        **** 	
 216:main.c        **** 	/* erase/write command */
 217:main.c        **** 	if(wr_cmd >= 4) {
 218:main.c        **** 		ret = xnvm_ctrl_cmd_write(write_cmds[wr_cmd-4]);
 219:main.c        **** 		if(ret != STATUS_OK)
 220:main.c        **** 			return ret;
 221:main.c        **** 		
 222:main.c        **** 		/* Dummy write for starting the erase and write command */
 223:main.c        **** 		ret = xnvm_st_ptr(addr);
 224:main.c        **** 		if(ret != STATUS_OK)
 225:main.c        **** 			return ret;
 226:main.c        **** 		
 227:main.c        **** 		ret = xnvm_st_star_ptr_postinc(DUMMY_BYTE);
 228:main.c        **** 		if(ret != STATUS_OK)
 229:main.c        **** 			return ret;
 230:main.c        **** 		
 231:main.c        **** 		ret = xnvm_ctrl_wait_nvmbusy(WAIT_RETRIES_NUM);
 232:main.c        **** 	}
 233:main.c        **** 	return ret;
 234:main.c        **** }
 235:main.c        **** 
 236:main.c        **** static uint8_t process_cmd(void) {
 237:main.c        **** 	uint32_t addr = spibuf[1]|((uint32_t)spibuf[2]<<8)|(((uint32_t)spibuf[3])<<16)|(((uint32_t)spibuf[
 238:main.c        **** 	uint16_t len = spibuf[5]|(((uint16_t)spibuf[6])<<8);
 239:main.c        **** 	uint8_t cmd = spibuf[0];
 240:main.c        **** 	enum status_code ret = STATUS_OK;
 241:main.c        **** 	
 242:main.c        **** 	if(len > 256)
 243:main.c        **** 		return STATUS_ERROR | 8;
 244:main.c        **** 	
 245:main.c        **** 	if(cmd & CMD_BUFFER) {
 246:main.c        **** 		if(len) {
 247:main.c        **** 			/* verify checksum */
 248:main.c        **** 			if(checksum(spibuf+8,len+1))
 249:main.c        **** 				return STATUS_ERROR | 4;
 250:main.c        **** 		}
 251:main.c        **** 		ret = cmd_buffer(addr,spibuf+8,len);
 252:main.c        **** 		goto out;
 253:main.c        **** 	}
 254:main.c        **** 	
 255:main.c        **** 	switch(cmd&CMD_MASK) {
 256:main.c        **** 		case CMD_NOP:
 257:main.c        **** 			break;
 258:main.c        **** 		case CMD_ID:
 259:main.c        **** 			spibuf[7]=ID_MAGIC1;
 260:main.c        **** 			spibuf[8]=ID_MAGIC2;
 261:main.c        **** 			spibuf[9]=VERSION_MSB;
 262:main.c        **** 			spibuf[10]=VERSION_LSB;
 263:main.c        **** 			spibuf[11]=checksum(spibuf+7,4);
 264:main.c        **** 			break;
 265:main.c        **** 		case CMD_INIT:
 266:main.c        **** 			ret = xnvm_init(addr&0xff);
 267:main.c        **** 			if(ret == STATUS_OK) {
 268:main.c        **** 				PORTB|=(1<<PB0);
 269:main.c        **** 				pdi_connected = 1;
 270:main.c        **** 			}
 271:main.c        **** 			break;
 272:main.c        **** 		case CMD_DEINIT:
 273:main.c        **** 			PORTB&=~(1<<PB0);
 274:main.c        **** 			pdi_connected=0;
 275:main.c        **** 			ret = xnvm_deinit();
 276:main.c        **** 			break;
 277:main.c        **** 		case CMD_CHIPERASE:
 278:main.c        **** 			ret = xnvm_chip_erase();
 279:main.c        **** 			break;
 280:main.c        **** 		case CMD_READ:
 281:main.c        **** 			ret = xnvm_read_memory(addr,(uint8_t*)(spibuf+7),len);
 282:main.c        **** 			spibuf[7+len] = checksum(spibuf+7,len);
 283:main.c        **** 			//ret = (ret == len) ? 0 : ERR_IO_ERROR;
 284:main.c        **** 			break;
 285:main.c        **** 		case CMD_WRITEFUSE:
 286:main.c        **** 			/* verify checksum */
 287:main.c        **** 			if(spibuf[8] ^ spibuf[9] ^ 0x55)
 288:main.c        **** 				return STATUS_ERROR | 4;
 289:main.c        **** 			ret = xnvm_write_fuse_bit(addr, spibuf[8], 1000);
 290:main.c        **** 			break;
 291:main.c        **** 		case CMD_WRITEUSERSIGN:
 292:main.c        **** 			/* load buffer */
 293:main.c        **** 			if(len) {
 294:main.c        **** 				/* verify checksum */
 295:main.c        **** 				if(checksum(spibuf+8,len+1))
 296:main.c        **** 					return STATUS_ERROR | 4;
 297:main.c        **** 					
 298:main.c        **** 				ret = xnvm_load_buffer(spibuf+8,len);
 299:main.c        **** 				if(ret != STATUS_OK)
 300:main.c        **** 					return ret;
 301:main.c        **** 			}
 302:main.c        **** 			/* erase + write buffer */
 303:main.c        **** 			ret = xnvm_erase_program_user_sign();
 304:main.c        **** 			break;
 305:main.c        **** 		default:
 306:main.c        **** 			ret = ERR_INVALID_ARG;
 307:main.c        **** 	}
 308:main.c        **** out:
 309:main.c        **** 	if(ret > 0) ret = 0;
 310:main.c        **** 	return ret ? (((ret)&STATUS_ERRORMASK)|STATUS_ERROR) : 0;
 311:main.c        **** }
 312:main.c        ****  
 313:main.c        **** /* TODOs: 
 314:main.c        ****  * timeouts for all commands 
 315:main.c        ****  * set baudrate
 316:main.c        ****  * spi checksum
 317:main.c        ****  * */
 318:main.c        **** 
 319:main.c        **** int main(void) {
 234               		.loc 1 319 0
 235               		.cfi_startproc
 236 0000 CF93      		push r28
 237               	.LCFI11:
 238               		.cfi_def_cfa_offset 3
 239               		.cfi_offset 28, -2
 240 0002 DF93      		push r29
 241               	.LCFI12:
 242               		.cfi_def_cfa_offset 4
 243               		.cfi_offset 29, -3
 244 0004 1F92      		push __zero_reg__
 245               	.LCFI13:
 246               		.cfi_def_cfa_offset 5
 247 0006 CDB7      		in r28,__SP_L__
 248 0008 DEB7      		in r29,__SP_H__
 249               	.LCFI14:
 250               		.cfi_def_cfa_register 28
 251               	/* prologue: function */
 252               	/* frame size = 1 */
 253               	/* stack size = 3 */
 254               	.L__stack_usage = 3
 255               	.LVL16:
 256               	.LBB11:
 257               	.LBB12:
 258               		.file 2 "/usr/lib/avr/include/avr/power.h"
   1:/usr/lib/avr/include/avr/power.h **** /* Copyright (c) 2006, 2007, 2008  Eric B. Weddington
   2:/usr/lib/avr/include/avr/power.h ****    Copyright (c) 2011 Frédéric Nadeau
   3:/usr/lib/avr/include/avr/power.h ****    All rights reserved.
   4:/usr/lib/avr/include/avr/power.h **** 
   5:/usr/lib/avr/include/avr/power.h ****    Redistribution and use in source and binary forms, with or without
   6:/usr/lib/avr/include/avr/power.h ****    modification, are permitted provided that the following conditions are met:
   7:/usr/lib/avr/include/avr/power.h **** 
   8:/usr/lib/avr/include/avr/power.h ****    * Redistributions of source code must retain the above copyright
   9:/usr/lib/avr/include/avr/power.h ****      notice, this list of conditions and the following disclaimer.
  10:/usr/lib/avr/include/avr/power.h ****    * Redistributions in binary form must reproduce the above copyright
  11:/usr/lib/avr/include/avr/power.h ****      notice, this list of conditions and the following disclaimer in
  12:/usr/lib/avr/include/avr/power.h ****      the documentation and/or other materials provided with the
  13:/usr/lib/avr/include/avr/power.h ****      distribution.
  14:/usr/lib/avr/include/avr/power.h ****    * Neither the name of the copyright holders nor the names of
  15:/usr/lib/avr/include/avr/power.h ****      contributors may be used to endorse or promote products derived
  16:/usr/lib/avr/include/avr/power.h ****      from this software without specific prior written permission.
  17:/usr/lib/avr/include/avr/power.h **** 
  18:/usr/lib/avr/include/avr/power.h ****   THIS SOFTWARE IS PROVIDED BY THE COPYRIGHT HOLDERS AND CONTRIBUTORS "AS IS"
  19:/usr/lib/avr/include/avr/power.h ****   AND ANY EXPRESS OR IMPLIED WARRANTIES, INCLUDING, BUT NOT LIMITED TO, THE
  20:/usr/lib/avr/include/avr/power.h ****   IMPLIED WARRANTIES OF MERCHANTABILITY AND FITNESS FOR A PARTICULAR PURPOSE
  21:/usr/lib/avr/include/avr/power.h ****   ARE DISCLAIMED. IN NO EVENT SHALL THE COPYRIGHT OWNER OR CONTRIBUTORS BE
  22:/usr/lib/avr/include/avr/power.h ****   LIABLE FOR ANY DIRECT, INDIRECT, INCIDENTAL, SPECIAL, EXEMPLARY, OR
  23:/usr/lib/avr/include/avr/power.h ****   CONSEQUENTIAL DAMAGES (INCLUDING, BUT NOT LIMITED TO, PROCUREMENT OF
  24:/usr/lib/avr/include/avr/power.h ****   SUBSTITUTE GOODS OR SERVICES; LOSS OF USE, DATA, OR PROFITS; OR BUSINESS
  25:/usr/lib/avr/include/avr/power.h ****   INTERRUPTION) HOWEVER CAUSED AND ON ANY THEORY OF LIABILITY, WHETHER IN
  26:/usr/lib/avr/include/avr/power.h ****   CONTRACT, STRICT LIABILITY, OR TORT (INCLUDING NEGLIGENCE OR OTHERWISE)
  27:/usr/lib/avr/include/avr/power.h ****   ARISING IN ANY WAY OUT OF THE USE OF THIS SOFTWARE, EVEN IF ADVISED OF THE
  28:/usr/lib/avr/include/avr/power.h ****   POSSIBILITY OF SUCH DAMAGE. */
  29:/usr/lib/avr/include/avr/power.h **** 
  30:/usr/lib/avr/include/avr/power.h **** /* $Id$ */
  31:/usr/lib/avr/include/avr/power.h **** 
  32:/usr/lib/avr/include/avr/power.h **** #ifndef _AVR_POWER_H_
  33:/usr/lib/avr/include/avr/power.h **** #define _AVR_POWER_H_   1
  34:/usr/lib/avr/include/avr/power.h **** 
  35:/usr/lib/avr/include/avr/power.h **** #include <avr/io.h>
  36:/usr/lib/avr/include/avr/power.h **** #include <stdint.h>
  37:/usr/lib/avr/include/avr/power.h **** 
  38:/usr/lib/avr/include/avr/power.h **** 
  39:/usr/lib/avr/include/avr/power.h **** /** \file */
  40:/usr/lib/avr/include/avr/power.h **** /** \defgroup avr_power <avr/power.h>: Power Reduction Management
  41:/usr/lib/avr/include/avr/power.h **** 
  42:/usr/lib/avr/include/avr/power.h **** \code #include <avr/power.h>\endcode
  43:/usr/lib/avr/include/avr/power.h **** 
  44:/usr/lib/avr/include/avr/power.h **** Many AVRs contain a Power Reduction Register (PRR) or Registers (PRRx) that 
  45:/usr/lib/avr/include/avr/power.h **** allow you to reduce power consumption by disabling or enabling various on-board 
  46:/usr/lib/avr/include/avr/power.h **** peripherals as needed. Some devices have the XTAL Divide Control Register
  47:/usr/lib/avr/include/avr/power.h **** (XDIV) which offer similar functionality as System Clock Prescale
  48:/usr/lib/avr/include/avr/power.h **** Register (CLKPR).
  49:/usr/lib/avr/include/avr/power.h **** 
  50:/usr/lib/avr/include/avr/power.h **** There are many macros in this header file that provide an easy interface
  51:/usr/lib/avr/include/avr/power.h **** to enable or disable on-board peripherals to reduce power. See the table below.
  52:/usr/lib/avr/include/avr/power.h **** 
  53:/usr/lib/avr/include/avr/power.h **** \note Not all AVR devices have a Power Reduction Register (for example
  54:/usr/lib/avr/include/avr/power.h **** the ATmega8). On those devices without a Power Reduction Register, the
  55:/usr/lib/avr/include/avr/power.h **** power reduction macros are not available..
  56:/usr/lib/avr/include/avr/power.h **** 
  57:/usr/lib/avr/include/avr/power.h **** \note Not all AVR devices contain the same peripherals (for example, the LCD
  58:/usr/lib/avr/include/avr/power.h **** interface), or they will be named differently (for example, USART and 
  59:/usr/lib/avr/include/avr/power.h **** USART0). Please consult your device's datasheet, or the header file, to 
  60:/usr/lib/avr/include/avr/power.h **** find out which macros are applicable to your device.
  61:/usr/lib/avr/include/avr/power.h **** 
  62:/usr/lib/avr/include/avr/power.h **** \note For device using the XTAL Divide Control Register (XDIV), when prescaler
  63:/usr/lib/avr/include/avr/power.h **** is used, Timer/Counter0 can only be used in asynchronous mode. Keep in mind
  64:/usr/lib/avr/include/avr/power.h **** that Timer/Counter0 source shall be less than ¼th of peripheral clock.
  65:/usr/lib/avr/include/avr/power.h **** Therefore, when using a typical 32.768 kHz crystal, one shall not scale
  66:/usr/lib/avr/include/avr/power.h **** the clock below 131.072 kHz.
  67:/usr/lib/avr/include/avr/power.h **** 
  68:/usr/lib/avr/include/avr/power.h **** */
  69:/usr/lib/avr/include/avr/power.h **** 
  70:/usr/lib/avr/include/avr/power.h **** 
  71:/usr/lib/avr/include/avr/power.h **** /** \addtogroup avr_power
  72:/usr/lib/avr/include/avr/power.h **** 
  73:/usr/lib/avr/include/avr/power.h **** \anchor avr_powermacros
  74:/usr/lib/avr/include/avr/power.h **** <small>
  75:/usr/lib/avr/include/avr/power.h **** <center>
  76:/usr/lib/avr/include/avr/power.h **** <table border="3">
  77:/usr/lib/avr/include/avr/power.h ****   <tr>
  78:/usr/lib/avr/include/avr/power.h ****     <td width="10%"><strong>Power Macro</strong></td>
  79:/usr/lib/avr/include/avr/power.h ****     <td width="15%"><strong>Description</strong></td>
  80:/usr/lib/avr/include/avr/power.h ****     <td width="75%"><strong>Applicable for device</strong></td>
  81:/usr/lib/avr/include/avr/power.h ****   </tr>
  82:/usr/lib/avr/include/avr/power.h **** 
  83:/usr/lib/avr/include/avr/power.h ****   <tr>
  84:/usr/lib/avr/include/avr/power.h ****    <td>power_aca_disable()</td>
  85:/usr/lib/avr/include/avr/power.h ****     <td> Disable The Analog Comparator On PortA </td>
  86:/usr/lib/avr/include/avr/power.h ****     <td>ATxmega16C4, ATxmega32C4, ATxmega32C3, ATxmega64C3, ATxmega128C3, ATxmega192C3, ATxmega256C
  87:/usr/lib/avr/include/avr/power.h ****   </tr>
  88:/usr/lib/avr/include/avr/power.h **** 
  89:/usr/lib/avr/include/avr/power.h ****   <tr>
  90:/usr/lib/avr/include/avr/power.h ****    <td>power_aca_enable()</td>
  91:/usr/lib/avr/include/avr/power.h ****     <td> Enable The Analog Comparator On PortA </td>
  92:/usr/lib/avr/include/avr/power.h ****     <td>ATxmega16C4, ATxmega32C4, ATxmega32C3, ATxmega64C3, ATxmega128C3, ATxmega192C3, ATxmega256C
  93:/usr/lib/avr/include/avr/power.h ****   </tr>
  94:/usr/lib/avr/include/avr/power.h **** 
  95:/usr/lib/avr/include/avr/power.h ****   <tr>
  96:/usr/lib/avr/include/avr/power.h ****    <td>power_acb_disable()</td>
  97:/usr/lib/avr/include/avr/power.h ****     <td> Disable The Analog Comparator On PortB </td>
  98:/usr/lib/avr/include/avr/power.h ****     <td>ATxmega16A4, ATxmega16A4U, ATxmega16D4, ATxmega32A4, ATxmega32A4U, ATxmega32D4, ATxmega64A1
  99:/usr/lib/avr/include/avr/power.h ****   </tr>
 100:/usr/lib/avr/include/avr/power.h **** 
 101:/usr/lib/avr/include/avr/power.h ****   <tr>
 102:/usr/lib/avr/include/avr/power.h ****    <td>power_acb_enable()</td>
 103:/usr/lib/avr/include/avr/power.h ****     <td> Enable The Analog Comparator On PortB </td>
 104:/usr/lib/avr/include/avr/power.h ****     <td>ATxmega16A4, ATxmega16A4U, ATxmega16D4, ATxmega32A4, ATxmega32A4U, ATxmega32D4, ATxmega64A1
 105:/usr/lib/avr/include/avr/power.h ****   </tr>
 106:/usr/lib/avr/include/avr/power.h **** 
 107:/usr/lib/avr/include/avr/power.h ****   <tr>
 108:/usr/lib/avr/include/avr/power.h ****    <td>power_adc_disable()</td>
 109:/usr/lib/avr/include/avr/power.h ****      <td>Disable the Analog to Digital Converter module.</td>
 110:/usr/lib/avr/include/avr/power.h ****     <td>ATmega640, ATmega1280, ATmega1281, ATmega2560, ATmega2561, ATmega128RFA1, AT90USB646, AT90U
 111:/usr/lib/avr/include/avr/power.h ****   </tr>
 112:/usr/lib/avr/include/avr/power.h **** 
 113:/usr/lib/avr/include/avr/power.h ****   <tr>
 114:/usr/lib/avr/include/avr/power.h ****    <td>power_adc_enable()</td>
 115:/usr/lib/avr/include/avr/power.h ****      <td>Enable the Analog to Digital Converter module.</td>
 116:/usr/lib/avr/include/avr/power.h ****     <td>ATmega640, ATmega1280, ATmega1281, ATmega2560, ATmega2561, ATmega128RFA1, AT90USB646, AT90U
 117:/usr/lib/avr/include/avr/power.h ****   </tr>
 118:/usr/lib/avr/include/avr/power.h **** 
 119:/usr/lib/avr/include/avr/power.h ****   <tr>
 120:/usr/lib/avr/include/avr/power.h ****    <td>power_adca_disable()</td>
 121:/usr/lib/avr/include/avr/power.h ****     <td> Disable the Analog to Digital Converter module On PortA </td>
 122:/usr/lib/avr/include/avr/power.h ****     <td>ATxmega16C4, ATxmega32C4, ATxmega32C3, ATxmega64C3, ATxmega128C3, ATxmega192C3, ATxmega256C
 123:/usr/lib/avr/include/avr/power.h ****   </tr>
 124:/usr/lib/avr/include/avr/power.h **** 
 125:/usr/lib/avr/include/avr/power.h ****   <tr>
 126:/usr/lib/avr/include/avr/power.h ****    <td>power_adca_enable()</td>
 127:/usr/lib/avr/include/avr/power.h ****     <td> Enable the Analog to Digital Converter module On PortA </td>
 128:/usr/lib/avr/include/avr/power.h ****     <td>ATxmega16C4, ATxmega32C4, ATxmega32C3, ATxmega64C3, ATxmega128C3, ATxmega192C3, ATxmega256C
 129:/usr/lib/avr/include/avr/power.h ****   </tr>
 130:/usr/lib/avr/include/avr/power.h **** 
 131:/usr/lib/avr/include/avr/power.h ****   <tr>
 132:/usr/lib/avr/include/avr/power.h ****    <td>power_adcb_disable()</td>
 133:/usr/lib/avr/include/avr/power.h ****     <td> Disable the Analog to Digital Converter module On PortB </td>
 134:/usr/lib/avr/include/avr/power.h ****     <td>ATxmega16A4, ATxmega16A4U, ATxmega16D4, ATxmega32A4, ATxmega32A4U, ATxmega32D4, ATxmega64A1
 135:/usr/lib/avr/include/avr/power.h ****   </tr>
 136:/usr/lib/avr/include/avr/power.h **** 
 137:/usr/lib/avr/include/avr/power.h ****   <tr>
 138:/usr/lib/avr/include/avr/power.h ****    <td>power_adcb_enable()</td>
 139:/usr/lib/avr/include/avr/power.h ****     <td> Enable the Analog to Digital Converter module On PortB </td>
 140:/usr/lib/avr/include/avr/power.h ****     <td>ATxmega16A4, ATxmega16A4U, ATxmega16D4, ATxmega32A4, ATxmega32A4U, ATxmega32D4, ATxmega64A1
 141:/usr/lib/avr/include/avr/power.h ****   </tr>
 142:/usr/lib/avr/include/avr/power.h **** 
 143:/usr/lib/avr/include/avr/power.h ****   <tr>
 144:/usr/lib/avr/include/avr/power.h ****    <td>power_aes_disable()</td>
 145:/usr/lib/avr/include/avr/power.h ****     <td> Disable the AES module </td>
 146:/usr/lib/avr/include/avr/power.h ****     <td>ATxmega16A4, ATxmega16A4U, ATxmega32A4U, ATxmega32A4, ATxmega64A1, ATxmega64A1U, ATxmega64A
 147:/usr/lib/avr/include/avr/power.h ****   </tr>
 148:/usr/lib/avr/include/avr/power.h **** 
 149:/usr/lib/avr/include/avr/power.h ****   <tr>
 150:/usr/lib/avr/include/avr/power.h ****    <td>power_aes_enable()</td>
 151:/usr/lib/avr/include/avr/power.h ****     <td> Enable the AES module </td>
 152:/usr/lib/avr/include/avr/power.h ****     <td>ATxmega16A4, ATxmega16A4U, ATxmega32A4U, ATxmega32A4, ATxmega64A1, ATxmega64A1U, ATxmega64A
 153:/usr/lib/avr/include/avr/power.h ****   </tr>
 154:/usr/lib/avr/include/avr/power.h **** 
 155:/usr/lib/avr/include/avr/power.h ****   <tr>
 156:/usr/lib/avr/include/avr/power.h ****    <td>power_all_disable()</td>
 157:/usr/lib/avr/include/avr/power.h ****      <td>Disable all modules.</td>
 158:/usr/lib/avr/include/avr/power.h ****     <td>ATxmega384C3, ATxmega256A3BU, ATxmega16A4U, ATxmega32A4U, ATxmega64A3U, ATxmega64A4U, ATxme
 159:/usr/lib/avr/include/avr/power.h ****   </tr>
 160:/usr/lib/avr/include/avr/power.h **** 
 161:/usr/lib/avr/include/avr/power.h ****   <tr>
 162:/usr/lib/avr/include/avr/power.h ****    <td>power_all_enable()</td>
 163:/usr/lib/avr/include/avr/power.h ****      <td>Enable all modules.</td>
 164:/usr/lib/avr/include/avr/power.h ****     <td>ATxmega384C3, ATxmega256A3BU, ATxmega16A4U, ATxmega32A4U, ATxmega64A3U, ATxmega64A4U, ATxme
 165:/usr/lib/avr/include/avr/power.h ****   </tr>
 166:/usr/lib/avr/include/avr/power.h **** 
 167:/usr/lib/avr/include/avr/power.h ****   <tr>
 168:/usr/lib/avr/include/avr/power.h ****    <td>power_can_disable()</td>
 169:/usr/lib/avr/include/avr/power.h ****     <td> Disable the CAN module </td>
 170:/usr/lib/avr/include/avr/power.h ****     <td>ATmega16M1, ATmega32C1, ATmega32M1, ATmega64C1, ATmega64M1</td>
 171:/usr/lib/avr/include/avr/power.h ****   </tr>
 172:/usr/lib/avr/include/avr/power.h **** 
 173:/usr/lib/avr/include/avr/power.h ****   <tr>
 174:/usr/lib/avr/include/avr/power.h ****    <td>power_can_enable()</td>
 175:/usr/lib/avr/include/avr/power.h ****     <td> Enable the CAN module </td>
 176:/usr/lib/avr/include/avr/power.h ****     <td>ATmega16M1, ATmega32C1, ATmega32M1, ATmega64C1, ATmega64M1</td>
 177:/usr/lib/avr/include/avr/power.h ****   </tr>
 178:/usr/lib/avr/include/avr/power.h **** 
 179:/usr/lib/avr/include/avr/power.h ****   <tr>
 180:/usr/lib/avr/include/avr/power.h ****    <td>power_cinterface_disable()</td>
 181:/usr/lib/avr/include/avr/power.h ****     <td> Disable the CINTERFACE module </td>
 182:/usr/lib/avr/include/avr/power.h ****     <td>ATA5790, ATA5795, ATA5702M322</td>
 183:/usr/lib/avr/include/avr/power.h ****   </tr>
 184:/usr/lib/avr/include/avr/power.h **** 
 185:/usr/lib/avr/include/avr/power.h ****   <tr>
 186:/usr/lib/avr/include/avr/power.h ****    <td>power_cinterface_enable()</td>
 187:/usr/lib/avr/include/avr/power.h ****     <td> Enable the CINTERFACE module </td>
 188:/usr/lib/avr/include/avr/power.h ****     <td>ATA5790, ATA5795, ATA5702M322</td>
 189:/usr/lib/avr/include/avr/power.h ****   </tr>
 190:/usr/lib/avr/include/avr/power.h **** 
 191:/usr/lib/avr/include/avr/power.h ****   <tr>
 192:/usr/lib/avr/include/avr/power.h ****    <td>power_crypto_disable()</td>
 193:/usr/lib/avr/include/avr/power.h ****     <td> Disable the CRYPTO module </td>
 194:/usr/lib/avr/include/avr/power.h ****     <td>ATA5790, ATA5795, ATA5702M322</td>
 195:/usr/lib/avr/include/avr/power.h ****   </tr>
 196:/usr/lib/avr/include/avr/power.h **** 
 197:/usr/lib/avr/include/avr/power.h ****   <tr>
 198:/usr/lib/avr/include/avr/power.h ****    <td>power_crypto_enable()</td>
 199:/usr/lib/avr/include/avr/power.h ****     <td> Enable the CRYPTO module </td>
 200:/usr/lib/avr/include/avr/power.h ****     <td>ATA5790, ATA5795, ATA5702M322</td>
 201:/usr/lib/avr/include/avr/power.h ****   </tr>
 202:/usr/lib/avr/include/avr/power.h **** 
 203:/usr/lib/avr/include/avr/power.h ****   <tr>
 204:/usr/lib/avr/include/avr/power.h ****    <td>power_daca_disable()</td>
 205:/usr/lib/avr/include/avr/power.h ****     <td> Disable the DAC module on PortA </td>
 206:/usr/lib/avr/include/avr/power.h ****     <td>ATxmega16A4, ATxmega16A4U, ATxmega32A4U, ATxmega32A4, ATxmega64A1, ATxmega64A1U, ATxmega64A
 207:/usr/lib/avr/include/avr/power.h ****   </tr>
 208:/usr/lib/avr/include/avr/power.h **** 
 209:/usr/lib/avr/include/avr/power.h ****   <tr>
 210:/usr/lib/avr/include/avr/power.h ****    <td>power_daca_enable()</td>
 211:/usr/lib/avr/include/avr/power.h ****     <td> Enable the DAC module on PortA </td>
 212:/usr/lib/avr/include/avr/power.h ****     <td>ATxmega16A4, ATxmega16A4U, ATxmega32A4U, ATxmega32A4, ATxmega64A1, ATxmega64A1U, ATxmega64A
 213:/usr/lib/avr/include/avr/power.h ****   </tr>
 214:/usr/lib/avr/include/avr/power.h **** 
 215:/usr/lib/avr/include/avr/power.h ****   <tr>
 216:/usr/lib/avr/include/avr/power.h ****    <td>power_dacb_disable()</td>
 217:/usr/lib/avr/include/avr/power.h ****     <td> Disable the DAC module on PortB </td>
 218:/usr/lib/avr/include/avr/power.h ****     <td>ATxmega16A4, ATxmega16A4U, ATxmega32A4U, ATxmega32A4, ATxmega64A1, ATxmega64A1U, ATxmega64A
 219:/usr/lib/avr/include/avr/power.h ****   </tr>
 220:/usr/lib/avr/include/avr/power.h **** 
 221:/usr/lib/avr/include/avr/power.h ****   <tr>
 222:/usr/lib/avr/include/avr/power.h ****    <td>power_dacb_enable()</td>
 223:/usr/lib/avr/include/avr/power.h ****     <td> Enable the DAC module on PortB </td>
 224:/usr/lib/avr/include/avr/power.h ****     <td>ATxmega16A4, ATxmega16A4U, ATxmega32A4U, ATxmega32A4, ATxmega64A1, ATxmega64A1U, ATxmega64A
 225:/usr/lib/avr/include/avr/power.h ****   </tr>
 226:/usr/lib/avr/include/avr/power.h **** 
 227:/usr/lib/avr/include/avr/power.h ****   <tr>
 228:/usr/lib/avr/include/avr/power.h ****    <td>power_dma_disable()</td>
 229:/usr/lib/avr/include/avr/power.h ****     <td> Disable the DMA module </td>
 230:/usr/lib/avr/include/avr/power.h ****     <td>ATxmega16A4, ATxmega16A4U, ATxmega32A4U, ATxmega32A4, ATxmega64A1, ATxmega64A1U, ATxmega64A
 231:/usr/lib/avr/include/avr/power.h ****   </tr>
 232:/usr/lib/avr/include/avr/power.h **** 
 233:/usr/lib/avr/include/avr/power.h ****   <tr>
 234:/usr/lib/avr/include/avr/power.h ****    <td>power_dma_enable()</td>
 235:/usr/lib/avr/include/avr/power.h ****     <td> Enable the DMA module </td>
 236:/usr/lib/avr/include/avr/power.h ****     <td>ATxmega16A4, ATxmega16A4U, ATxmega32A4U, ATxmega32A4, ATxmega64A1, ATxmega64A1U, ATxmega64A
 237:/usr/lib/avr/include/avr/power.h ****   </tr>
 238:/usr/lib/avr/include/avr/power.h **** 
 239:/usr/lib/avr/include/avr/power.h ****   <tr>
 240:/usr/lib/avr/include/avr/power.h ****    <td>power_ebi_disable()</td>
 241:/usr/lib/avr/include/avr/power.h ****     <td> Disable the EBI module </td>
 242:/usr/lib/avr/include/avr/power.h ****     <td>ATxmega16A4, ATxmega16A4U, ATxmega32A4U, ATxmega32A4, ATxmega64A1, ATxmega64A1U, ATxmega64A
 243:/usr/lib/avr/include/avr/power.h ****   </tr>
 244:/usr/lib/avr/include/avr/power.h **** 
 245:/usr/lib/avr/include/avr/power.h ****   <tr>
 246:/usr/lib/avr/include/avr/power.h ****    <td>power_ebi_enable()</td>
 247:/usr/lib/avr/include/avr/power.h ****     <td> Enable the EBI module </td>
 248:/usr/lib/avr/include/avr/power.h ****     <td>ATxmega16A4, ATxmega16A4U, ATxmega32A4U, ATxmega32A4, ATxmega64A1, ATxmega64A1U, ATxmega64A
 249:/usr/lib/avr/include/avr/power.h ****   </tr>
 250:/usr/lib/avr/include/avr/power.h **** 
 251:/usr/lib/avr/include/avr/power.h ****   <tr>
 252:/usr/lib/avr/include/avr/power.h ****    <td>power_evsys_disable()</td>
 253:/usr/lib/avr/include/avr/power.h ****     <td> Disable the EVSYS module </td>
 254:/usr/lib/avr/include/avr/power.h ****     <td>ATxmega16C4, ATxmega32C4, ATxmega32C3, ATxmega64C3, ATxmega128C3, ATxmega192C3, ATxmega256C
 255:/usr/lib/avr/include/avr/power.h ****   </tr>
 256:/usr/lib/avr/include/avr/power.h **** 
 257:/usr/lib/avr/include/avr/power.h ****   <tr>
 258:/usr/lib/avr/include/avr/power.h ****    <td>power_evsys_enable()</td>
 259:/usr/lib/avr/include/avr/power.h ****     <td> Enable the EVSYS module </td>
 260:/usr/lib/avr/include/avr/power.h ****     <td>ATxmega16C4, ATxmega32C4, ATxmega32C3, ATxmega64C3, ATxmega128C3, ATxmega192C3, ATxmega256C
 261:/usr/lib/avr/include/avr/power.h ****   </tr>
 262:/usr/lib/avr/include/avr/power.h **** 
 263:/usr/lib/avr/include/avr/power.h ****   <tr>
 264:/usr/lib/avr/include/avr/power.h ****    <td>power_hiresc_disable()</td>
 265:/usr/lib/avr/include/avr/power.h ****     <td> Disable the HIRES module on PortC </td>
 266:/usr/lib/avr/include/avr/power.h ****     <td>ATxmega16C4, ATxmega32C4, ATxmega32C3, ATxmega64C3, ATxmega128C3, ATxmega192C3, ATxmega256C
 267:/usr/lib/avr/include/avr/power.h ****   </tr>
 268:/usr/lib/avr/include/avr/power.h **** 
 269:/usr/lib/avr/include/avr/power.h ****   <tr>
 270:/usr/lib/avr/include/avr/power.h ****    <td>power_hiresc_enable()</td>
 271:/usr/lib/avr/include/avr/power.h ****     <td> Enable the HIRES module on PortC </td>
 272:/usr/lib/avr/include/avr/power.h ****     <td>ATxmega16C4, ATxmega32C4, ATxmega32C3, ATxmega64C3, ATxmega128C3, ATxmega192C3, ATxmega256C
 273:/usr/lib/avr/include/avr/power.h ****   </tr>
 274:/usr/lib/avr/include/avr/power.h **** 
 275:/usr/lib/avr/include/avr/power.h ****   <tr>
 276:/usr/lib/avr/include/avr/power.h ****    <td>power_hiresd_disable()</td>
 277:/usr/lib/avr/include/avr/power.h ****     <td> Disable the HIRES module on PortD </td>
 278:/usr/lib/avr/include/avr/power.h ****     <td>ATxmega16A4, ATxmega16A4U, ATxmega16D4, ATxmega32A4, ATxmega32A4U, ATxmega32D4, ATxmega64A1
 279:/usr/lib/avr/include/avr/power.h ****   </tr>
 280:/usr/lib/avr/include/avr/power.h **** 
 281:/usr/lib/avr/include/avr/power.h ****   <tr>
 282:/usr/lib/avr/include/avr/power.h ****    <td>power_hiresd_enable()</td>
 283:/usr/lib/avr/include/avr/power.h ****     <td> Enable the HIRES module on PortD </td>
 284:/usr/lib/avr/include/avr/power.h ****     <td>ATxmega16A4, ATxmega16A4U, ATxmega16D4, ATxmega32A4, ATxmega32A4U, ATxmega32D4, ATxmega64A1
 285:/usr/lib/avr/include/avr/power.h ****   </tr>
 286:/usr/lib/avr/include/avr/power.h **** 
 287:/usr/lib/avr/include/avr/power.h ****   <tr>
 288:/usr/lib/avr/include/avr/power.h ****    <td>power_hirese_disable()</td>
 289:/usr/lib/avr/include/avr/power.h ****     <td> Disable the HIRES module on PortE </td>
 290:/usr/lib/avr/include/avr/power.h ****     <td>ATxmega16A4, ATxmega16A4U, ATxmega16D4, ATxmega32A4, ATxmega32A4U, ATxmega32D4, ATxmega64A1
 291:/usr/lib/avr/include/avr/power.h ****   </tr>
 292:/usr/lib/avr/include/avr/power.h **** 
 293:/usr/lib/avr/include/avr/power.h ****   <tr>
 294:/usr/lib/avr/include/avr/power.h ****    <td>power_hirese_enable()</td>
 295:/usr/lib/avr/include/avr/power.h ****     <td> Enable the HIRES module on PortE </td>
 296:/usr/lib/avr/include/avr/power.h ****     <td>ATxmega16A4, ATxmega16A4U, ATxmega16D4, ATxmega32A4, ATxmega32A4U, ATxmega32D4, ATxmega64A1
 297:/usr/lib/avr/include/avr/power.h ****   </tr>
 298:/usr/lib/avr/include/avr/power.h **** 
 299:/usr/lib/avr/include/avr/power.h ****   <tr>
 300:/usr/lib/avr/include/avr/power.h ****    <td>power_hiresf_disable()</td>
 301:/usr/lib/avr/include/avr/power.h ****     <td> Disable the HIRES module on PortF </td>
 302:/usr/lib/avr/include/avr/power.h ****     <td>ATxmega16A4, ATxmega16A4U, ATxmega16D4, ATxmega32A4, ATxmega32A4U, ATxmega32D4, ATxmega64A1
 303:/usr/lib/avr/include/avr/power.h ****   </tr>
 304:/usr/lib/avr/include/avr/power.h **** 
 305:/usr/lib/avr/include/avr/power.h ****   <tr>
 306:/usr/lib/avr/include/avr/power.h ****    <td>power_hiresf_enable()</td>
 307:/usr/lib/avr/include/avr/power.h ****     <td> Enable the HIRES module on PortF </td>
 308:/usr/lib/avr/include/avr/power.h ****     <td>ATxmega16A4, ATxmega16A4U, ATxmega16D4, ATxmega32A4, ATxmega32A4U, ATxmega32D4, ATxmega64A1
 309:/usr/lib/avr/include/avr/power.h ****   </tr>
 310:/usr/lib/avr/include/avr/power.h **** 
 311:/usr/lib/avr/include/avr/power.h ****   <tr>
 312:/usr/lib/avr/include/avr/power.h ****    <td>power_hsspi_disable()</td>
 313:/usr/lib/avr/include/avr/power.h ****     <td> Disable the HSPPI module </td>
 314:/usr/lib/avr/include/avr/power.h ****     <td>AT90SCR100</td>
 315:/usr/lib/avr/include/avr/power.h ****   </tr>
 316:/usr/lib/avr/include/avr/power.h **** 
 317:/usr/lib/avr/include/avr/power.h ****   <tr>
 318:/usr/lib/avr/include/avr/power.h ****    <td>power_hsspi_enable()</td>
 319:/usr/lib/avr/include/avr/power.h ****     <td> Enable the HSPPI module </td>
 320:/usr/lib/avr/include/avr/power.h ****     <td>AT90SCR100</td>
 321:/usr/lib/avr/include/avr/power.h ****   </tr>
 322:/usr/lib/avr/include/avr/power.h **** 
 323:/usr/lib/avr/include/avr/power.h ****   <tr>
 324:/usr/lib/avr/include/avr/power.h ****    <td>power_irdriver_disable()</td>
 325:/usr/lib/avr/include/avr/power.h ****     <td> Disable the IRDRIVER module </td>
 326:/usr/lib/avr/include/avr/power.h ****     <td>ATA5790, ATA5795</td>
 327:/usr/lib/avr/include/avr/power.h ****   </tr>
 328:/usr/lib/avr/include/avr/power.h **** 
 329:/usr/lib/avr/include/avr/power.h ****   <tr>
 330:/usr/lib/avr/include/avr/power.h ****    <td>power_irdriver_enable()</td>
 331:/usr/lib/avr/include/avr/power.h ****     <td> Enable the IRDRIVER module </td>
 332:/usr/lib/avr/include/avr/power.h ****     <td>ATA5790, ATA5795</td>
 333:/usr/lib/avr/include/avr/power.h ****   </tr>
 334:/usr/lib/avr/include/avr/power.h **** 
 335:/usr/lib/avr/include/avr/power.h ****   <tr>
 336:/usr/lib/avr/include/avr/power.h ****    <td>power_kb_disable()</td>
 337:/usr/lib/avr/include/avr/power.h ****     <td> Disable the KB module </td>
 338:/usr/lib/avr/include/avr/power.h ****     <td>AT90SCR100</td>
 339:/usr/lib/avr/include/avr/power.h ****   </tr>
 340:/usr/lib/avr/include/avr/power.h **** 
 341:/usr/lib/avr/include/avr/power.h ****   <tr>
 342:/usr/lib/avr/include/avr/power.h ****    <td>power_kb_enable()</td>
 343:/usr/lib/avr/include/avr/power.h ****     <td> Enable the KB module </td>
 344:/usr/lib/avr/include/avr/power.h ****     <td>AT90SCR100</td>
 345:/usr/lib/avr/include/avr/power.h ****   </tr>
 346:/usr/lib/avr/include/avr/power.h **** 
 347:/usr/lib/avr/include/avr/power.h ****   <tr>
 348:/usr/lib/avr/include/avr/power.h ****    <td>power_lcd_disable()</td>
 349:/usr/lib/avr/include/avr/power.h ****      <td>Disable the LCD module.</td>
 350:/usr/lib/avr/include/avr/power.h ****     <td>ATxmega64B1, ATxmega64B3, ATxmega128B1, ATxmega128B3, ATmega169, ATmega169A, ATmega169P, AT
 351:/usr/lib/avr/include/avr/power.h ****   </tr>
 352:/usr/lib/avr/include/avr/power.h **** 
 353:/usr/lib/avr/include/avr/power.h ****   <tr>
 354:/usr/lib/avr/include/avr/power.h ****    <td>power_lcd_enable()</td>
 355:/usr/lib/avr/include/avr/power.h ****      <td>Enable the LCD module.</td>
 356:/usr/lib/avr/include/avr/power.h ****     <td>ATxmega64B1, ATxmega64B3, ATxmega128B1, ATxmega128B3, ATmega169, ATmega169A, ATmega169P, AT
 357:/usr/lib/avr/include/avr/power.h ****   </tr>
 358:/usr/lib/avr/include/avr/power.h **** 
 359:/usr/lib/avr/include/avr/power.h ****   <tr>
 360:/usr/lib/avr/include/avr/power.h ****    <td>power_lfreceiver_disable()</td>
 361:/usr/lib/avr/include/avr/power.h ****     <td> Disable the LFRECEIVER module </td>
 362:/usr/lib/avr/include/avr/power.h ****     <td>ATA5790, ATA5702M322</td>
 363:/usr/lib/avr/include/avr/power.h ****   </tr>
 364:/usr/lib/avr/include/avr/power.h **** 
 365:/usr/lib/avr/include/avr/power.h ****   <tr>
 366:/usr/lib/avr/include/avr/power.h ****    <td>power_lfreceiver_enable()</td>
 367:/usr/lib/avr/include/avr/power.h ****     <td> Enable the LFRECEIVER module </td>
 368:/usr/lib/avr/include/avr/power.h ****     <td>ATA5790, ATA5702M322</td>
 369:/usr/lib/avr/include/avr/power.h ****   </tr>
 370:/usr/lib/avr/include/avr/power.h **** 
 371:/usr/lib/avr/include/avr/power.h ****   <tr>
 372:/usr/lib/avr/include/avr/power.h ****    <td>power_lin_disable()</td>
 373:/usr/lib/avr/include/avr/power.h ****     <td> Disable the LIN module </td>
 374:/usr/lib/avr/include/avr/power.h ****     <td>ATmega16M1, ATmega32C1, ATmega32M1, ATmega64C1, ATmega64M1, ATtiny167, ATtiny87, ATA5505, A
 375:/usr/lib/avr/include/avr/power.h ****   </tr>
 376:/usr/lib/avr/include/avr/power.h **** 
 377:/usr/lib/avr/include/avr/power.h ****   <tr>
 378:/usr/lib/avr/include/avr/power.h ****    <td>power_lin_enable()</td>
 379:/usr/lib/avr/include/avr/power.h ****     <td> Enable the LIN module </td>
 380:/usr/lib/avr/include/avr/power.h ****     <td>ATmega16M1, ATmega32C1, ATmega32M1, ATmega64C1, ATmega64M1, ATtiny167, ATtiny87, ATA5505, A
 381:/usr/lib/avr/include/avr/power.h ****   </tr>
 382:/usr/lib/avr/include/avr/power.h **** 
 383:/usr/lib/avr/include/avr/power.h ****   <tr>
 384:/usr/lib/avr/include/avr/power.h ****    <td>power_psc0_disable()</td>
 385:/usr/lib/avr/include/avr/power.h ****      <td>Disable the Power Stage Controller 0 module.</td>
 386:/usr/lib/avr/include/avr/power.h ****     <td>AT90PWM1, AT90PWM2, AT90PWM2B, AT90PWM3, AT90PWM3B, AT90PWM216, AT90PWM316</td>
 387:/usr/lib/avr/include/avr/power.h ****   </tr>
 388:/usr/lib/avr/include/avr/power.h **** 
 389:/usr/lib/avr/include/avr/power.h ****   <tr>
 390:/usr/lib/avr/include/avr/power.h ****    <td>power_psc0_enable()</td>
 391:/usr/lib/avr/include/avr/power.h ****      <td>Enable the Power Stage Controller 0 module.</td>
 392:/usr/lib/avr/include/avr/power.h ****     <td>AT90PWM1, AT90PWM2, AT90PWM2B, AT90PWM3, AT90PWM3B, AT90PWM216, AT90PWM316</td>
 393:/usr/lib/avr/include/avr/power.h ****   </tr>
 394:/usr/lib/avr/include/avr/power.h **** 
 395:/usr/lib/avr/include/avr/power.h ****   <tr>
 396:/usr/lib/avr/include/avr/power.h ****    <td>power_psc1_disable()</td>
 397:/usr/lib/avr/include/avr/power.h ****      <td>Disable the Power Stage Controller 1 module.</td>
 398:/usr/lib/avr/include/avr/power.h ****     <td>AT90PWM1, AT90PWM2, AT90PWM2B, AT90PWM3, AT90PWM3B, AT90PWM216, AT90PWM316</td>
 399:/usr/lib/avr/include/avr/power.h ****   </tr>
 400:/usr/lib/avr/include/avr/power.h **** 
 401:/usr/lib/avr/include/avr/power.h ****   <tr>
 402:/usr/lib/avr/include/avr/power.h ****    <td>power_psc1_enable()</td>
 403:/usr/lib/avr/include/avr/power.h ****      <td>Enable the Power Stage Controller 1 module.</td>
 404:/usr/lib/avr/include/avr/power.h ****     <td>AT90PWM1, AT90PWM2, AT90PWM2B, AT90PWM3, AT90PWM3B, AT90PWM216, AT90PWM316</td>
 405:/usr/lib/avr/include/avr/power.h ****   </tr>
 406:/usr/lib/avr/include/avr/power.h **** 
 407:/usr/lib/avr/include/avr/power.h ****   <tr>
 408:/usr/lib/avr/include/avr/power.h ****    <td>power_psc2_disable()</td>
 409:/usr/lib/avr/include/avr/power.h ****      <td>Disable the Power Stage Controller 2 module.</td>
 410:/usr/lib/avr/include/avr/power.h ****     <td>AT90PWM1, AT90PWM2, AT90PWM2B, AT90PWM3, AT90PWM3B, AT90PWM216, AT90PWM316, AT90PWM81, AT90
 411:/usr/lib/avr/include/avr/power.h ****   </tr>
 412:/usr/lib/avr/include/avr/power.h **** 
 413:/usr/lib/avr/include/avr/power.h ****   <tr>
 414:/usr/lib/avr/include/avr/power.h ****    <td>power_psc2_enable()</td>
 415:/usr/lib/avr/include/avr/power.h ****      <td>Enable the Power Stage Controller 2 module.</td>
 416:/usr/lib/avr/include/avr/power.h ****     <td>AT90PWM1, AT90PWM2, AT90PWM2B, AT90PWM3, AT90PWM3B, AT90PWM216, AT90PWM316, AT90PWM81, AT90
 417:/usr/lib/avr/include/avr/power.h ****   </tr>
 418:/usr/lib/avr/include/avr/power.h **** 
 419:/usr/lib/avr/include/avr/power.h ****   <tr>
 420:/usr/lib/avr/include/avr/power.h ****    <td>power_psc_disable()</td>
 421:/usr/lib/avr/include/avr/power.h ****     <td> Disable the Power Stage Controller module </td>
 422:/usr/lib/avr/include/avr/power.h ****     <td>ATmega16M1, ATmega32C1, ATmega32M1, ATmega64C1, ATmega64M1</td>
 423:/usr/lib/avr/include/avr/power.h ****   </tr>
 424:/usr/lib/avr/include/avr/power.h **** 
 425:/usr/lib/avr/include/avr/power.h ****   <tr>
 426:/usr/lib/avr/include/avr/power.h ****    <td>power_psc_enable()</td>
 427:/usr/lib/avr/include/avr/power.h ****     <td> Enable the Power Stage Controller module </td>
 428:/usr/lib/avr/include/avr/power.h ****     <td>ATmega16M1, ATmega32C1, ATmega32M1, ATmega64C1, ATmega64M1</td>
 429:/usr/lib/avr/include/avr/power.h ****   </tr>
 430:/usr/lib/avr/include/avr/power.h **** 
 431:/usr/lib/avr/include/avr/power.h ****   <tr>
 432:/usr/lib/avr/include/avr/power.h ****    <td>power_pscr_disable()</td>
 433:/usr/lib/avr/include/avr/power.h ****      <td>Disable the Reduced Power Stage Controller module.</td>
 434:/usr/lib/avr/include/avr/power.h ****     <td>AT90PWM81, AT90PWM161</td>
 435:/usr/lib/avr/include/avr/power.h ****   </tr>
 436:/usr/lib/avr/include/avr/power.h **** 
 437:/usr/lib/avr/include/avr/power.h ****   <tr>
 438:/usr/lib/avr/include/avr/power.h ****    <td>power_pscr_enable()</td>
 439:/usr/lib/avr/include/avr/power.h ****      <td>Enable the Reduced Power Stage Controller module.</td>
 440:/usr/lib/avr/include/avr/power.h ****     <td>AT90PWM81, AT90PWM161</td>
 441:/usr/lib/avr/include/avr/power.h ****   </tr>
 442:/usr/lib/avr/include/avr/power.h **** 
 443:/usr/lib/avr/include/avr/power.h ****   <tr>
 444:/usr/lib/avr/include/avr/power.h ****    <td>power_rtc_disable()</td>
 445:/usr/lib/avr/include/avr/power.h ****     <td> Disable the RTC module </td>
 446:/usr/lib/avr/include/avr/power.h ****     <td>ATxmega16C4, ATxmega32C4, ATxmega32C3, ATxmega64C3, ATxmega128C3, ATxmega192C3, ATxmega256C
 447:/usr/lib/avr/include/avr/power.h ****   </tr>
 448:/usr/lib/avr/include/avr/power.h **** 
 449:/usr/lib/avr/include/avr/power.h ****   <tr>
 450:/usr/lib/avr/include/avr/power.h ****    <td>power_rtc_enable()</td>
 451:/usr/lib/avr/include/avr/power.h ****     <td> Enable the RTC module </td>
 452:/usr/lib/avr/include/avr/power.h ****     <td>ATxmega16C4, ATxmega32C4, ATxmega32C3, ATxmega64C3, ATxmega128C3, ATxmega192C3, ATxmega256C
 453:/usr/lib/avr/include/avr/power.h ****   </tr>
 454:/usr/lib/avr/include/avr/power.h **** 
 455:/usr/lib/avr/include/avr/power.h ****   <tr>
 456:/usr/lib/avr/include/avr/power.h ****    <td>power_sci_disable()</td>
 457:/usr/lib/avr/include/avr/power.h ****     <td> Disable the SCI module </td>
 458:/usr/lib/avr/include/avr/power.h ****     <td>AT90SCR100</td>
 459:/usr/lib/avr/include/avr/power.h ****   </tr>
 460:/usr/lib/avr/include/avr/power.h **** 
 461:/usr/lib/avr/include/avr/power.h ****   <tr>
 462:/usr/lib/avr/include/avr/power.h ****    <td>power_sci_enable()</td>
 463:/usr/lib/avr/include/avr/power.h ****     <td> Enable the SCI module </td>
 464:/usr/lib/avr/include/avr/power.h ****     <td>AT90SCR100</td>
 465:/usr/lib/avr/include/avr/power.h ****   </tr>
 466:/usr/lib/avr/include/avr/power.h **** 
 467:/usr/lib/avr/include/avr/power.h ****   <tr>
 468:/usr/lib/avr/include/avr/power.h ****    <td>power_spi_disable()</td>
 469:/usr/lib/avr/include/avr/power.h ****      <td>Disable the Serial Peripheral Interface module.</td>
 470:/usr/lib/avr/include/avr/power.h ****     <td>ATmega640, ATmega1280, ATmega1281, ATmega2560, ATmega2561, ATmega128RFA1, AT90USB646, AT90U
 471:/usr/lib/avr/include/avr/power.h ****   </tr>
 472:/usr/lib/avr/include/avr/power.h **** 
 473:/usr/lib/avr/include/avr/power.h ****   <tr>
 474:/usr/lib/avr/include/avr/power.h ****    <td>power_spi_enable()</td>
 475:/usr/lib/avr/include/avr/power.h ****      <td>Enable the Serial Peripheral Interface module.</td>
 476:/usr/lib/avr/include/avr/power.h ****     <td>ATmega640, ATmega1280, ATmega1281, ATmega2560, ATmega2561, ATmega128RFA1, AT90USB646, AT90U
 477:/usr/lib/avr/include/avr/power.h ****   </tr>
 478:/usr/lib/avr/include/avr/power.h **** 
 479:/usr/lib/avr/include/avr/power.h ****   <tr>
 480:/usr/lib/avr/include/avr/power.h ****    <td>power_spic_disable()</td>
 481:/usr/lib/avr/include/avr/power.h ****     <td> Disable the SPI module on PortC </td>
 482:/usr/lib/avr/include/avr/power.h ****     <td>ATxmega16C4, ATxmega32C4, ATxmega32C3, ATxmega64C3, ATxmega128C3, ATxmega192C3, ATxmega256C
 483:/usr/lib/avr/include/avr/power.h ****   </tr>
 484:/usr/lib/avr/include/avr/power.h **** 
 485:/usr/lib/avr/include/avr/power.h ****   <tr>
 486:/usr/lib/avr/include/avr/power.h ****    <td>power_spic_enable()</td>
 487:/usr/lib/avr/include/avr/power.h ****     <td> Enable the SPI module on PortC </td>
 488:/usr/lib/avr/include/avr/power.h ****     <td>ATxmega16C4, ATxmega32C4, ATxmega32C3, ATxmega64C3, ATxmega128C3, ATxmega192C3, ATxmega256C
 489:/usr/lib/avr/include/avr/power.h ****   </tr>
 490:/usr/lib/avr/include/avr/power.h **** 
 491:/usr/lib/avr/include/avr/power.h ****   <tr>
 492:/usr/lib/avr/include/avr/power.h ****    <td>power_spid_disable()</td>
 493:/usr/lib/avr/include/avr/power.h ****     <td> Disable the SPI module on PortD </td>
 494:/usr/lib/avr/include/avr/power.h ****     <td>ATxmega16C4, ATxmega32C4, ATxmega32C3, ATxmega64C3, ATxmega128C3, ATxmega192C3, ATxmega256C
 495:/usr/lib/avr/include/avr/power.h ****   </tr>
 496:/usr/lib/avr/include/avr/power.h **** 
 497:/usr/lib/avr/include/avr/power.h ****   <tr>
 498:/usr/lib/avr/include/avr/power.h ****    <td>power_spid_enable()</td>
 499:/usr/lib/avr/include/avr/power.h ****     <td> Enable the SPI module on PortD </td>
 500:/usr/lib/avr/include/avr/power.h ****     <td>ATxmega16C4, ATxmega32C4, ATxmega32C3, ATxmega64C3, ATxmega128C3, ATxmega192C3, ATxmega256C
 501:/usr/lib/avr/include/avr/power.h ****   </tr>
 502:/usr/lib/avr/include/avr/power.h **** 
 503:/usr/lib/avr/include/avr/power.h ****   <tr>
 504:/usr/lib/avr/include/avr/power.h ****    <td>power_spie_disable()</td>
 505:/usr/lib/avr/include/avr/power.h ****     <td> Disable the SPI module on PortE </td>
 506:/usr/lib/avr/include/avr/power.h ****     <td>ATxmega16A4, ATxmega16A4U, ATxmega16D4, ATxmega32A4, ATxmega32A4U, ATxmega32D4, ATxmega64A1
 507:/usr/lib/avr/include/avr/power.h ****   </tr>
 508:/usr/lib/avr/include/avr/power.h **** 
 509:/usr/lib/avr/include/avr/power.h ****   <tr>
 510:/usr/lib/avr/include/avr/power.h ****    <td>power_spie_enable()</td>
 511:/usr/lib/avr/include/avr/power.h ****     <td> Enable the SPI module on PortE </td>
 512:/usr/lib/avr/include/avr/power.h ****     <td>ATxmega16A4, ATxmega16A4U, ATxmega16D4, ATxmega32A4, ATxmega32A4U, ATxmega32D4, ATxmega64A1
 513:/usr/lib/avr/include/avr/power.h ****   </tr>
 514:/usr/lib/avr/include/avr/power.h **** 
 515:/usr/lib/avr/include/avr/power.h ****   <tr>
 516:/usr/lib/avr/include/avr/power.h ****    <td>power_spif_disable()</td>
 517:/usr/lib/avr/include/avr/power.h ****     <td> Disable the SPI module on PortF </td>
 518:/usr/lib/avr/include/avr/power.h ****     <td>ATxmega16A4, ATxmega16A4U, ATxmega16D4, ATxmega32A4, ATxmega32A4U, ATxmega32D4, ATxmega64A1
 519:/usr/lib/avr/include/avr/power.h ****   </tr>
 520:/usr/lib/avr/include/avr/power.h **** 
 521:/usr/lib/avr/include/avr/power.h ****   <tr>
 522:/usr/lib/avr/include/avr/power.h ****    <td>power_spif_enable()</td>
 523:/usr/lib/avr/include/avr/power.h ****     <td> Enable the SPI module on PortF </td>
 524:/usr/lib/avr/include/avr/power.h ****     <td>ATxmega16A4, ATxmega16A4U, ATxmega16D4, ATxmega32A4, ATxmega32A4U, ATxmega32D4, ATxmega64A1
 525:/usr/lib/avr/include/avr/power.h ****   </tr>
 526:/usr/lib/avr/include/avr/power.h **** 
 527:/usr/lib/avr/include/avr/power.h ****   <tr>
 528:/usr/lib/avr/include/avr/power.h ****    <td>power_tc0c_disable()</td>
 529:/usr/lib/avr/include/avr/power.h ****     <td> Disable the TC0 module on PortC </td>
 530:/usr/lib/avr/include/avr/power.h ****     <td>ATxmega16C4, ATxmega32C4, ATxmega32C3, ATxmega64C3, ATxmega128C3, ATxmega192C3, ATxmega256C
 531:/usr/lib/avr/include/avr/power.h ****   </tr>
 532:/usr/lib/avr/include/avr/power.h **** 
 533:/usr/lib/avr/include/avr/power.h ****   <tr>
 534:/usr/lib/avr/include/avr/power.h ****    <td>power_tc0c_enable()</td>
 535:/usr/lib/avr/include/avr/power.h ****     <td> Enable the TC0 module on PortC </td>
 536:/usr/lib/avr/include/avr/power.h ****     <td>ATxmega16C4, ATxmega32C4, ATxmega32C3, ATxmega64C3, ATxmega128C3, ATxmega192C3, ATxmega256C
 537:/usr/lib/avr/include/avr/power.h ****   </tr>
 538:/usr/lib/avr/include/avr/power.h **** 
 539:/usr/lib/avr/include/avr/power.h ****   <tr>
 540:/usr/lib/avr/include/avr/power.h ****    <td>power_tc0d_disable()</td>
 541:/usr/lib/avr/include/avr/power.h ****     <td> Disable the TC0 module on PortD </td>
 542:/usr/lib/avr/include/avr/power.h ****     <td>ATxmega16C4, ATxmega32C4, ATxmega32C3, ATxmega64C3, ATxmega128C3, ATxmega192C3, ATxmega256C
 543:/usr/lib/avr/include/avr/power.h ****   </tr>
 544:/usr/lib/avr/include/avr/power.h **** 
 545:/usr/lib/avr/include/avr/power.h ****   <tr>
 546:/usr/lib/avr/include/avr/power.h ****    <td>power_tc0d_enable()</td>
 547:/usr/lib/avr/include/avr/power.h ****     <td> Enable the TC0 module on PortD </td>
 548:/usr/lib/avr/include/avr/power.h ****     <td>ATxmega16C4, ATxmega32C4, ATxmega32C3, ATxmega64C3, ATxmega128C3, ATxmega192C3, ATxmega256C
 549:/usr/lib/avr/include/avr/power.h ****   </tr>
 550:/usr/lib/avr/include/avr/power.h **** 
 551:/usr/lib/avr/include/avr/power.h ****   <tr>
 552:/usr/lib/avr/include/avr/power.h ****    <td>power_tc0e_disable()</td>
 553:/usr/lib/avr/include/avr/power.h ****     <td> Disable the TC0 module on PortE </td>
 554:/usr/lib/avr/include/avr/power.h ****     <td>ATxmega16C4, ATxmega32C4, ATxmega32C3, ATxmega64C3, ATxmega128C3, ATxmega192C3, ATxmega256C
 555:/usr/lib/avr/include/avr/power.h ****   </tr>
 556:/usr/lib/avr/include/avr/power.h **** 
 557:/usr/lib/avr/include/avr/power.h ****   <tr>
 558:/usr/lib/avr/include/avr/power.h ****    <td>power_tc0e_enable()</td>
 559:/usr/lib/avr/include/avr/power.h ****     <td> Enable the TC0 module on PortE </td>
 560:/usr/lib/avr/include/avr/power.h ****     <td>ATxmega16C4, ATxmega32C4, ATxmega32C3, ATxmega64C3, ATxmega128C3, ATxmega192C3, ATxmega256C
 561:/usr/lib/avr/include/avr/power.h ****   </tr>
 562:/usr/lib/avr/include/avr/power.h **** 
 563:/usr/lib/avr/include/avr/power.h ****   <tr>
 564:/usr/lib/avr/include/avr/power.h ****    <td>power_tc0f_disable()</td>
 565:/usr/lib/avr/include/avr/power.h ****     <td> Disable the TC0 module on PortF </td>
 566:/usr/lib/avr/include/avr/power.h ****     <td>ATxmega16C4, ATxmega32C4, ATxmega32C3, ATxmega64C3, ATxmega128C3, ATxmega192C3, ATxmega256C
 567:/usr/lib/avr/include/avr/power.h ****   </tr>
 568:/usr/lib/avr/include/avr/power.h **** 
 569:/usr/lib/avr/include/avr/power.h ****   <tr>
 570:/usr/lib/avr/include/avr/power.h ****    <td>power_tc0f_enable()</td>
 571:/usr/lib/avr/include/avr/power.h ****     <td> Enable the TC0 module on PortF </td>
 572:/usr/lib/avr/include/avr/power.h ****     <td>ATxmega16C4, ATxmega32C4, ATxmega32C3, ATxmega64C3, ATxmega128C3, ATxmega192C3, ATxmega256C
 573:/usr/lib/avr/include/avr/power.h ****   </tr>
 574:/usr/lib/avr/include/avr/power.h **** 
 575:/usr/lib/avr/include/avr/power.h ****   <tr>
 576:/usr/lib/avr/include/avr/power.h ****    <td>power_tc1c_disable()</td>
 577:/usr/lib/avr/include/avr/power.h ****     <td> Disable the TC1 module on PortC </td>
 578:/usr/lib/avr/include/avr/power.h ****     <td>ATxmega16C4, ATxmega32C4, ATxmega32C3, ATxmega64C3, ATxmega128C3, ATxmega192C3, ATxmega256C
 579:/usr/lib/avr/include/avr/power.h ****   </tr>
 580:/usr/lib/avr/include/avr/power.h **** 
 581:/usr/lib/avr/include/avr/power.h ****   <tr>
 582:/usr/lib/avr/include/avr/power.h ****    <td>power_tc1c_enable()</td>
 583:/usr/lib/avr/include/avr/power.h ****     <td> Enable the TC1 module on PortC </td>
 584:/usr/lib/avr/include/avr/power.h ****     <td>ATxmega16C4, ATxmega32C4, ATxmega32C3, ATxmega64C3, ATxmega128C3, ATxmega192C3, ATxmega256C
 585:/usr/lib/avr/include/avr/power.h ****   </tr>
 586:/usr/lib/avr/include/avr/power.h **** 
 587:/usr/lib/avr/include/avr/power.h ****   <tr>
 588:/usr/lib/avr/include/avr/power.h ****    <td>power_tc1d_disable()</td>
 589:/usr/lib/avr/include/avr/power.h ****     <td> Disable the TC1 module on PortD </td>
 590:/usr/lib/avr/include/avr/power.h ****     <td>ATxmega16A4, ATxmega16A4U, ATxmega16D4, ATxmega32A4, ATxmega32A4U, ATxmega32D4, ATxmega64A1
 591:/usr/lib/avr/include/avr/power.h ****   </tr>
 592:/usr/lib/avr/include/avr/power.h **** 
 593:/usr/lib/avr/include/avr/power.h ****   <tr>
 594:/usr/lib/avr/include/avr/power.h ****    <td>power_tc1d_enable()</td>
 595:/usr/lib/avr/include/avr/power.h ****     <td> Enable the TC1 module on PortD </td>
 596:/usr/lib/avr/include/avr/power.h ****     <td>ATxmega16A4, ATxmega16A4U, ATxmega16D4, ATxmega32A4, ATxmega32A4U, ATxmega32D4, ATxmega64A1
 597:/usr/lib/avr/include/avr/power.h ****   </tr>
 598:/usr/lib/avr/include/avr/power.h **** 
 599:/usr/lib/avr/include/avr/power.h ****   <tr>
 600:/usr/lib/avr/include/avr/power.h ****    <td>power_tc1e_disable()</td>
 601:/usr/lib/avr/include/avr/power.h ****     <td> Disable the TC1 module on PortE </td>
 602:/usr/lib/avr/include/avr/power.h ****     <td>ATxmega16A4, ATxmega16A4U, ATxmega16D4, ATxmega32A4, ATxmega32A4U, ATxmega32D4, ATxmega64A1
 603:/usr/lib/avr/include/avr/power.h ****   </tr>
 604:/usr/lib/avr/include/avr/power.h **** 
 605:/usr/lib/avr/include/avr/power.h ****   <tr>
 606:/usr/lib/avr/include/avr/power.h ****    <td>power_tc1e_enable()</td>
 607:/usr/lib/avr/include/avr/power.h ****     <td> Enable the TC1 module on PortE </td>
 608:/usr/lib/avr/include/avr/power.h ****     <td>ATxmega16A4, ATxmega16A4U, ATxmega16D4, ATxmega32A4, ATxmega32A4U, ATxmega32D4, ATxmega64A1
 609:/usr/lib/avr/include/avr/power.h ****   </tr>
 610:/usr/lib/avr/include/avr/power.h **** 
 611:/usr/lib/avr/include/avr/power.h ****   <tr>
 612:/usr/lib/avr/include/avr/power.h ****    <td>power_tc1f_disable()</td>
 613:/usr/lib/avr/include/avr/power.h ****     <td> Disable the TC1 module on PortF </td>
 614:/usr/lib/avr/include/avr/power.h ****     <td>ATxmega16A4, ATxmega16A4U, ATxmega16D4, ATxmega32A4, ATxmega32A4U, ATxmega32D4, ATxmega64A1
 615:/usr/lib/avr/include/avr/power.h ****   </tr>
 616:/usr/lib/avr/include/avr/power.h **** 
 617:/usr/lib/avr/include/avr/power.h ****   <tr>
 618:/usr/lib/avr/include/avr/power.h ****    <td>power_tc1f_enable()</td>
 619:/usr/lib/avr/include/avr/power.h ****     <td> Enable the TC1 module on PortF </td>
 620:/usr/lib/avr/include/avr/power.h ****     <td>ATxmega16A4, ATxmega16A4U, ATxmega16D4, ATxmega32A4, ATxmega32A4U, ATxmega32D4, ATxmega64A1
 621:/usr/lib/avr/include/avr/power.h ****   </tr>
 622:/usr/lib/avr/include/avr/power.h **** 
 623:/usr/lib/avr/include/avr/power.h ****   <tr>
 624:/usr/lib/avr/include/avr/power.h ****    <td>power_timer0_disable()</td>
 625:/usr/lib/avr/include/avr/power.h ****      <td>Disable the Timer 0 module.</td>
 626:/usr/lib/avr/include/avr/power.h ****     <td>ATmega640, ATmega1280, ATmega1281, ATmega2560, ATmega2561, ATmega128RFA1, AT90USB646, AT90U
 627:/usr/lib/avr/include/avr/power.h ****   </tr>
 628:/usr/lib/avr/include/avr/power.h **** 
 629:/usr/lib/avr/include/avr/power.h ****   <tr>
 630:/usr/lib/avr/include/avr/power.h ****    <td>power_timer0_enable()</td>
 631:/usr/lib/avr/include/avr/power.h ****      <td>Enable the Timer 0 module.</td>
 632:/usr/lib/avr/include/avr/power.h ****     <td>ATmega640, ATmega1280, ATmega1281, ATmega2560, ATmega2561, ATmega128RFA1, AT90USB646, AT90U
 633:/usr/lib/avr/include/avr/power.h ****   </tr>
 634:/usr/lib/avr/include/avr/power.h **** 
 635:/usr/lib/avr/include/avr/power.h ****   <tr>
 636:/usr/lib/avr/include/avr/power.h ****    <td>power_timer1_disable()</td>
 637:/usr/lib/avr/include/avr/power.h ****      <td>Disable the Timer 1 module.</td>
 638:/usr/lib/avr/include/avr/power.h ****     <td>ATmega640, ATmega1280, ATmega1281, ATmega2560, ATmega2561, ATmega128RFA1, AT90USB646, AT90U
 639:/usr/lib/avr/include/avr/power.h ****   </tr>
 640:/usr/lib/avr/include/avr/power.h **** 
 641:/usr/lib/avr/include/avr/power.h ****   <tr>
 642:/usr/lib/avr/include/avr/power.h ****    <td>power_timer1_enable()</td>
 643:/usr/lib/avr/include/avr/power.h ****      <td>Enable the Timer 1 module.</td>
 644:/usr/lib/avr/include/avr/power.h ****     <td>ATmega640, ATmega1280, ATmega1281, ATmega2560, ATmega2561, ATmega128RFA1, AT90USB646, AT90U
 645:/usr/lib/avr/include/avr/power.h ****   </tr>
 646:/usr/lib/avr/include/avr/power.h **** 
 647:/usr/lib/avr/include/avr/power.h ****   <tr>
 648:/usr/lib/avr/include/avr/power.h ****    <td>power_timer2_disable()</td>
 649:/usr/lib/avr/include/avr/power.h ****      <td>Disable the Timer 2 module.</td>
 650:/usr/lib/avr/include/avr/power.h ****     <td>ATmega640, ATmega1280, ATmega1281, ATmega2560, ATmega2561, ATmega128RFA1, AT90USB646, AT90U
 651:/usr/lib/avr/include/avr/power.h ****   </tr>
 652:/usr/lib/avr/include/avr/power.h **** 
 653:/usr/lib/avr/include/avr/power.h ****   <tr>
 654:/usr/lib/avr/include/avr/power.h ****    <td>power_timer2_enable()</td>
 655:/usr/lib/avr/include/avr/power.h ****      <td>Enable the Timer 2 module.</td>
 656:/usr/lib/avr/include/avr/power.h ****     <td>ATmega640, ATmega1280, ATmega1281, ATmega2560, ATmega2561, ATmega128RFA1, AT90USB646, AT90U
 657:/usr/lib/avr/include/avr/power.h ****   </tr>
 658:/usr/lib/avr/include/avr/power.h **** 
 659:/usr/lib/avr/include/avr/power.h ****   <tr>
 660:/usr/lib/avr/include/avr/power.h ****    <td>power_timer3_disable()</td>
 661:/usr/lib/avr/include/avr/power.h ****      <td>Disable the Timer 3 module.</td>
 662:/usr/lib/avr/include/avr/power.h ****     <td>ATmega640, ATmega1280, ATmega1281, ATmega2560, ATmega2561, ATmega128RFA1, AT90USB646, AT90U
 663:/usr/lib/avr/include/avr/power.h ****   </tr>
 664:/usr/lib/avr/include/avr/power.h **** 
 665:/usr/lib/avr/include/avr/power.h ****   <tr>
 666:/usr/lib/avr/include/avr/power.h ****    <td>power_timer3_enable()</td>
 667:/usr/lib/avr/include/avr/power.h ****      <td>Enable the Timer 3 module.</td>
 668:/usr/lib/avr/include/avr/power.h ****     <td>ATmega640, ATmega1280, ATmega1281, ATmega2560, ATmega2561, ATmega128RFA1, AT90USB646, AT90U
 669:/usr/lib/avr/include/avr/power.h ****   </tr>
 670:/usr/lib/avr/include/avr/power.h **** 
 671:/usr/lib/avr/include/avr/power.h ****   <tr>
 672:/usr/lib/avr/include/avr/power.h ****    <td>power_timer4_disable()</td>
 673:/usr/lib/avr/include/avr/power.h ****      <td>Disable the Timer 4 module.</td>
 674:/usr/lib/avr/include/avr/power.h ****     <td>ATmega640, ATmega1280, ATmega1281, ATmega2560, ATmega2561, ATmega128RFA1</td>
 675:/usr/lib/avr/include/avr/power.h ****   </tr>
 676:/usr/lib/avr/include/avr/power.h **** 
 677:/usr/lib/avr/include/avr/power.h ****   <tr>
 678:/usr/lib/avr/include/avr/power.h ****    <td>power_timer4_enable()</td>
 679:/usr/lib/avr/include/avr/power.h ****      <td>Enable the Timer 4 module.</td>
 680:/usr/lib/avr/include/avr/power.h ****     <td>ATmega640, ATmega1280, ATmega1281, ATmega2560, ATmega2561, ATmega128RFA1</td>
 681:/usr/lib/avr/include/avr/power.h ****   </tr>
 682:/usr/lib/avr/include/avr/power.h **** 
 683:/usr/lib/avr/include/avr/power.h ****   <tr>
 684:/usr/lib/avr/include/avr/power.h ****    <td>power_timermodulator_disable()</td>
 685:/usr/lib/avr/include/avr/power.h ****     <td> Disable the TIMERMODULATOR module </td>
 686:/usr/lib/avr/include/avr/power.h ****     <td>ATA5790, ATA5795</td>
 687:/usr/lib/avr/include/avr/power.h ****   </tr>
 688:/usr/lib/avr/include/avr/power.h **** 
 689:/usr/lib/avr/include/avr/power.h ****   <tr>
 690:/usr/lib/avr/include/avr/power.h ****    <td>power_timermodulator_enable()</td>
 691:/usr/lib/avr/include/avr/power.h ****     <td> Enable the TIMERMODULATOR module </td>
 692:/usr/lib/avr/include/avr/power.h ****     <td>ATA5790, ATA5795</td>
 693:/usr/lib/avr/include/avr/power.h ****   </tr>
 694:/usr/lib/avr/include/avr/power.h **** 
 695:/usr/lib/avr/include/avr/power.h ****   <tr>
 696:/usr/lib/avr/include/avr/power.h ****    <td>power_twi_disable()</td>
 697:/usr/lib/avr/include/avr/power.h ****     <td>Disable the Two Wire Interface module.</td>
 698:/usr/lib/avr/include/avr/power.h ****     <td>ATmega640, ATmega1280, ATmega1281, ATmega2560, ATmega2561, ATmega128RFA1, AT90USB646, AT90U
 699:/usr/lib/avr/include/avr/power.h ****   </tr>
 700:/usr/lib/avr/include/avr/power.h **** 
 701:/usr/lib/avr/include/avr/power.h ****   <tr>
 702:/usr/lib/avr/include/avr/power.h ****    <td>power_twi_enable()</td>
 703:/usr/lib/avr/include/avr/power.h ****     <td>Enable the Two Wire Interface module.</td>
 704:/usr/lib/avr/include/avr/power.h ****     <td>ATmega640, ATmega1280, ATmega1281, ATmega2560, ATmega2561, ATmega128RFA1, AT90USB646, AT90U
 705:/usr/lib/avr/include/avr/power.h ****   </tr>
 706:/usr/lib/avr/include/avr/power.h **** 
 707:/usr/lib/avr/include/avr/power.h ****   <tr>
 708:/usr/lib/avr/include/avr/power.h ****    <td>power_twic_disable()</td>
 709:/usr/lib/avr/include/avr/power.h ****     <td>Disable the Two Wire Interface module on PortC </td>
 710:/usr/lib/avr/include/avr/power.h ****     <td>ATxmega16C4, ATxmega32C4, ATxmega32C3, ATxmega64C3, ATxmega128C3, ATxmega192C3, ATxmega256C
 711:/usr/lib/avr/include/avr/power.h ****   </tr>
 712:/usr/lib/avr/include/avr/power.h **** 
 713:/usr/lib/avr/include/avr/power.h ****   <tr>
 714:/usr/lib/avr/include/avr/power.h ****    <td>power_twic_enable()</td>
 715:/usr/lib/avr/include/avr/power.h ****     <td>Enable the Two Wire Interface module on PortC </td>
 716:/usr/lib/avr/include/avr/power.h ****     <td>ATxmega16C4, ATxmega32C4, ATxmega32C3, ATxmega64C3, ATxmega128C3, ATxmega192C3, ATxmega256C
 717:/usr/lib/avr/include/avr/power.h ****   </tr>
 718:/usr/lib/avr/include/avr/power.h **** 
 719:/usr/lib/avr/include/avr/power.h ****   <tr>
 720:/usr/lib/avr/include/avr/power.h ****    <td>power_twid_disable()</td>
 721:/usr/lib/avr/include/avr/power.h ****     <td>Disable the Two Wire Interface module on PortD </td>
 722:/usr/lib/avr/include/avr/power.h ****     <td>ATxmega16A4, ATxmega16A4U, ATxmega16D4, ATxmega32A4, ATxmega32A4U, ATxmega32D4, ATxmega64A1
 723:/usr/lib/avr/include/avr/power.h ****   </tr>
 724:/usr/lib/avr/include/avr/power.h **** 
 725:/usr/lib/avr/include/avr/power.h ****   <tr>
 726:/usr/lib/avr/include/avr/power.h ****    <td>power_twid_enable()</td>
 727:/usr/lib/avr/include/avr/power.h ****     <td>Enable the Two Wire Interface module on PortD </td>
 728:/usr/lib/avr/include/avr/power.h ****     <td>ATxmega16A4, ATxmega16A4U, ATxmega16D4, ATxmega32A4, ATxmega32A4U, ATxmega32D4, ATxmega64A1
 729:/usr/lib/avr/include/avr/power.h ****   </tr>
 730:/usr/lib/avr/include/avr/power.h **** 
 731:/usr/lib/avr/include/avr/power.h ****   <tr>
 732:/usr/lib/avr/include/avr/power.h ****    <td>power_twie_disable()</td>
 733:/usr/lib/avr/include/avr/power.h ****     <td>Disable the Two Wire Interface module on PortE </td>
 734:/usr/lib/avr/include/avr/power.h ****     <td>ATxmega16C4, ATxmega32C4, ATxmega32C3, ATxmega64C3, ATxmega128C3, ATxmega192C3, ATxmega256C
 735:/usr/lib/avr/include/avr/power.h ****   </tr>
 736:/usr/lib/avr/include/avr/power.h **** 
 737:/usr/lib/avr/include/avr/power.h ****   <tr>
 738:/usr/lib/avr/include/avr/power.h ****    <td>power_twie_enable()</td>
 739:/usr/lib/avr/include/avr/power.h ****     <td>Enable the Two Wire Interface module on PortE </td>
 740:/usr/lib/avr/include/avr/power.h ****     <td>ATxmega16C4, ATxmega32C4, ATxmega32C3, ATxmega64C3, ATxmega128C3, ATxmega192C3, ATxmega256C
 741:/usr/lib/avr/include/avr/power.h ****   </tr>
 742:/usr/lib/avr/include/avr/power.h **** 
 743:/usr/lib/avr/include/avr/power.h ****   <tr>
 744:/usr/lib/avr/include/avr/power.h ****    <td>power_twif_disable()</td>
 745:/usr/lib/avr/include/avr/power.h ****     <td>Disable the Two Wire Interface module on PortF </td>
 746:/usr/lib/avr/include/avr/power.h ****     <td>ATxmega16A4, ATxmega16A4U, ATxmega16D4, ATxmega32A4, ATxmega32A4U, ATxmega32D4, ATxmega64A1
 747:/usr/lib/avr/include/avr/power.h ****   </tr>
 748:/usr/lib/avr/include/avr/power.h **** 
 749:/usr/lib/avr/include/avr/power.h ****   <tr>
 750:/usr/lib/avr/include/avr/power.h ****    <td>power_twif_enable()</td>
 751:/usr/lib/avr/include/avr/power.h ****     <td>Disable the Two Wire Interface module on PortF </td>
 752:/usr/lib/avr/include/avr/power.h ****     <td>ATxmega16A4, ATxmega16A4U, ATxmega16D4, ATxmega32A4, ATxmega32A4U, ATxmega32D4, ATxmega64A1
 753:/usr/lib/avr/include/avr/power.h ****   </tr>
 754:/usr/lib/avr/include/avr/power.h **** 
 755:/usr/lib/avr/include/avr/power.h ****   <tr>
 756:/usr/lib/avr/include/avr/power.h ****    <td>power_usart0_disable()</td>
 757:/usr/lib/avr/include/avr/power.h ****      <td>Disable the USART 0 module.</td>
 758:/usr/lib/avr/include/avr/power.h ****     <td>ATmega640, ATmega1280, ATmega1281, ATmega2560, ATmega2561, ATmega128RFA1, ATmega32U4, ATmeg
 759:/usr/lib/avr/include/avr/power.h ****   </tr>
 760:/usr/lib/avr/include/avr/power.h **** 
 761:/usr/lib/avr/include/avr/power.h ****   <tr>
 762:/usr/lib/avr/include/avr/power.h ****    <td>power_usart0_enable()</td>
 763:/usr/lib/avr/include/avr/power.h ****      <td>Enable the USART 0 module.</td>
 764:/usr/lib/avr/include/avr/power.h ****     <td>ATmega640, ATmega1280, ATmega1281, ATmega2560, ATmega2561, ATmega128RFA1, ATmega32U4, ATmeg
 765:/usr/lib/avr/include/avr/power.h ****   </tr>
 766:/usr/lib/avr/include/avr/power.h **** 
 767:/usr/lib/avr/include/avr/power.h ****   <tr>
 768:/usr/lib/avr/include/avr/power.h ****    <td>power_usart1_disable()</td>
 769:/usr/lib/avr/include/avr/power.h ****      <td>Disable the USART 1 module.</td>
 770:/usr/lib/avr/include/avr/power.h ****     <td>ATmega640, ATmega1280, ATmega1281, ATmega2560, ATmega2561, ATmega128RFA1, AT90USB646, AT90U
 771:/usr/lib/avr/include/avr/power.h ****   </tr>
 772:/usr/lib/avr/include/avr/power.h **** 
 773:/usr/lib/avr/include/avr/power.h ****   <tr>
 774:/usr/lib/avr/include/avr/power.h ****    <td>power_usart1_enable()</td>
 775:/usr/lib/avr/include/avr/power.h ****      <td>Enable the USART 1 module.</td>
 776:/usr/lib/avr/include/avr/power.h ****     <td>ATmega640, ATmega1280, ATmega1281, ATmega2560, ATmega2561, ATmega128RFA1, AT90USB646, AT90U
 777:/usr/lib/avr/include/avr/power.h ****   </tr>
 778:/usr/lib/avr/include/avr/power.h **** 
 779:/usr/lib/avr/include/avr/power.h ****   <tr>
 780:/usr/lib/avr/include/avr/power.h ****    <td>power_usart2_disable()</td>
 781:/usr/lib/avr/include/avr/power.h ****      <td>Disable the USART 2 module.</td>
 782:/usr/lib/avr/include/avr/power.h ****     <td>ATmega640, ATmega1280, ATmega1281, ATmega2560, ATmega2561</td>
 783:/usr/lib/avr/include/avr/power.h ****   </tr>
 784:/usr/lib/avr/include/avr/power.h **** 
 785:/usr/lib/avr/include/avr/power.h ****   <tr>
 786:/usr/lib/avr/include/avr/power.h ****    <td>power_usart2_enable()</td>
 787:/usr/lib/avr/include/avr/power.h ****      <td>Enable the USART 2 module.</td>
 788:/usr/lib/avr/include/avr/power.h ****     <td>ATmega640, ATmega1280, ATmega1281, ATmega2560, ATmega2561</td>
 789:/usr/lib/avr/include/avr/power.h ****   </tr>
 790:/usr/lib/avr/include/avr/power.h **** 
 791:/usr/lib/avr/include/avr/power.h ****   <tr>
 792:/usr/lib/avr/include/avr/power.h ****    <td>power_usart3_disable()</td>
 793:/usr/lib/avr/include/avr/power.h ****      <td>Disable the USART 3 module.</td>
 794:/usr/lib/avr/include/avr/power.h ****     <td>ATmega640, ATmega1280, ATmega1281, ATmega2560, ATmega2561</td>
 795:/usr/lib/avr/include/avr/power.h ****   </tr>
 796:/usr/lib/avr/include/avr/power.h **** 
 797:/usr/lib/avr/include/avr/power.h ****   <tr>
 798:/usr/lib/avr/include/avr/power.h ****    <td>power_usart3_enable()</td>
 799:/usr/lib/avr/include/avr/power.h ****      <td>Enable the USART 3 module.</td>
 800:/usr/lib/avr/include/avr/power.h ****     <td>ATmega640, ATmega1280, ATmega1281, ATmega2560, ATmega2561</td>
 801:/usr/lib/avr/include/avr/power.h ****   </tr>
 802:/usr/lib/avr/include/avr/power.h **** 
 803:/usr/lib/avr/include/avr/power.h ****   <tr>
 804:/usr/lib/avr/include/avr/power.h ****    <td>power_usart_disable()</td>
 805:/usr/lib/avr/include/avr/power.h ****      <td>Disable the USART module.</td>
 806:/usr/lib/avr/include/avr/power.h ****     <td>AT90PWM2, AT90PWM2B, AT90PWM3, AT90PWM3B, AT90PWM216, AT90PWM316</td>
 807:/usr/lib/avr/include/avr/power.h ****   </tr>
 808:/usr/lib/avr/include/avr/power.h **** 
 809:/usr/lib/avr/include/avr/power.h ****   <tr>
 810:/usr/lib/avr/include/avr/power.h ****    <td>power_usart_enable()</td>
 811:/usr/lib/avr/include/avr/power.h ****      <td>Enable the USART module.</td>
 812:/usr/lib/avr/include/avr/power.h ****     <td>AT90PWM2, AT90PWM2B, AT90PWM3, AT90PWM3B, AT90PWM216, AT90PWM316</td>
 813:/usr/lib/avr/include/avr/power.h ****   </tr>
 814:/usr/lib/avr/include/avr/power.h **** 
 815:/usr/lib/avr/include/avr/power.h ****   <tr>
 816:/usr/lib/avr/include/avr/power.h ****    <td>power_usartc0_disable()</td>
 817:/usr/lib/avr/include/avr/power.h ****     <td> Disable the USART0 module on PortC </td>
 818:/usr/lib/avr/include/avr/power.h ****     <td>ATxmega16C4, ATxmega32C4, ATxmega32C3, ATxmega64C3, ATxmega128C3, ATxmega192C3, ATxmega256C
 819:/usr/lib/avr/include/avr/power.h ****   </tr>
 820:/usr/lib/avr/include/avr/power.h **** 
 821:/usr/lib/avr/include/avr/power.h ****   <tr>
 822:/usr/lib/avr/include/avr/power.h ****    <td>power_usartc0_enable()</td>
 823:/usr/lib/avr/include/avr/power.h ****     <td> Enable the USART0 module on PortC </td>
 824:/usr/lib/avr/include/avr/power.h ****     <td>ATxmega16C4, ATxmega32C4, ATxmega32C3, ATxmega64C3, ATxmega128C3, ATxmega192C3, ATxmega256C
 825:/usr/lib/avr/include/avr/power.h ****   </tr>
 826:/usr/lib/avr/include/avr/power.h **** 
 827:/usr/lib/avr/include/avr/power.h ****   <tr>
 828:/usr/lib/avr/include/avr/power.h ****    <td>power_usartc1_disable()</td>
 829:/usr/lib/avr/include/avr/power.h ****     <td> Disable the USART1 module on PortC </td>
 830:/usr/lib/avr/include/avr/power.h ****     <td>ATxmega16A4, ATxmega16A4U, ATxmega32A4U, ATxmega32A4, ATxmega64A1, ATxmega64A1U, ATxmega64A
 831:/usr/lib/avr/include/avr/power.h ****   </tr>
 832:/usr/lib/avr/include/avr/power.h **** 
 833:/usr/lib/avr/include/avr/power.h ****   <tr>
 834:/usr/lib/avr/include/avr/power.h ****    <td>power_usartc1_enable()</td>
 835:/usr/lib/avr/include/avr/power.h ****     <td> Enable the USART1 module on PortC </td>
 836:/usr/lib/avr/include/avr/power.h ****     <td>ATxmega16A4, ATxmega16A4U, ATxmega32A4U, ATxmega32A4, ATxmega64A1, ATxmega64A1U, ATxmega64A
 837:/usr/lib/avr/include/avr/power.h ****   </tr>
 838:/usr/lib/avr/include/avr/power.h **** 
 839:/usr/lib/avr/include/avr/power.h ****   <tr>
 840:/usr/lib/avr/include/avr/power.h ****    <td>power_usartd0_disable()</td>
 841:/usr/lib/avr/include/avr/power.h ****     <td> Disable the USART0 module on PortD </td>
 842:/usr/lib/avr/include/avr/power.h ****     <td>ATxmega16C4, ATxmega32C4, ATxmega32C3, ATxmega64C3, ATxmega128C3, ATxmega192C3, ATxmega256C
 843:/usr/lib/avr/include/avr/power.h ****   </tr>
 844:/usr/lib/avr/include/avr/power.h **** 
 845:/usr/lib/avr/include/avr/power.h ****   <tr>
 846:/usr/lib/avr/include/avr/power.h ****    <td>power_usartd0_enable()</td>
 847:/usr/lib/avr/include/avr/power.h ****     <td> Enable the USART0 module on PortD </td>
 848:/usr/lib/avr/include/avr/power.h ****     <td>ATxmega16C4, ATxmega32C4, ATxmega32C3, ATxmega64C3, ATxmega128C3, ATxmega192C3, ATxmega256C
 849:/usr/lib/avr/include/avr/power.h ****   </tr>
 850:/usr/lib/avr/include/avr/power.h **** 
 851:/usr/lib/avr/include/avr/power.h ****   <tr>
 852:/usr/lib/avr/include/avr/power.h ****    <td>power_usartd1_disable()</td>
 853:/usr/lib/avr/include/avr/power.h ****     <td> Disable the USART1 module on PortD </td>
 854:/usr/lib/avr/include/avr/power.h ****     <td>ATxmega16A4, ATxmega16A4U, ATxmega32A4U, ATxmega32A4, ATxmega64A1, ATxmega64A1U, ATxmega64A
 855:/usr/lib/avr/include/avr/power.h ****   </tr>
 856:/usr/lib/avr/include/avr/power.h **** 
 857:/usr/lib/avr/include/avr/power.h ****   <tr>
 858:/usr/lib/avr/include/avr/power.h ****    <td>power_usartd1_enable()</td>
 859:/usr/lib/avr/include/avr/power.h ****     <td> Enable the USART1 module on PortE </td>
 860:/usr/lib/avr/include/avr/power.h ****     <td>ATxmega16A4, ATxmega16A4U, ATxmega32A4U, ATxmega32A4, ATxmega64A1, ATxmega64A1U, ATxmega64A
 861:/usr/lib/avr/include/avr/power.h ****   </tr>
 862:/usr/lib/avr/include/avr/power.h **** 
 863:/usr/lib/avr/include/avr/power.h ****   <tr>
 864:/usr/lib/avr/include/avr/power.h ****    <td>power_usarte0_disable()</td>
 865:/usr/lib/avr/include/avr/power.h ****     <td> Disable the USART0 module on PortE </td>
 866:/usr/lib/avr/include/avr/power.h ****     <td>ATxmega16C4, ATxmega32C4, ATxmega32C3, ATxmega64C3, ATxmega128C3, ATxmega192C3, ATxmega256C
 867:/usr/lib/avr/include/avr/power.h ****   </tr>
 868:/usr/lib/avr/include/avr/power.h **** 
 869:/usr/lib/avr/include/avr/power.h ****   <tr>
 870:/usr/lib/avr/include/avr/power.h ****    <td>power_usarte0_enable()</td>
 871:/usr/lib/avr/include/avr/power.h ****     <td> Enable the USART0 module on PortE </td>
 872:/usr/lib/avr/include/avr/power.h ****     <td>ATxmega16C4, ATxmega32C4, ATxmega32C3, ATxmega64C3, ATxmega128C3, ATxmega192C3, ATxmega256C
 873:/usr/lib/avr/include/avr/power.h ****   </tr>
 874:/usr/lib/avr/include/avr/power.h **** 
 875:/usr/lib/avr/include/avr/power.h ****   <tr>
 876:/usr/lib/avr/include/avr/power.h ****    <td>power_usarte1_disable()</td>
 877:/usr/lib/avr/include/avr/power.h ****     <td> Disable the USART1 module on PortE </td>
 878:/usr/lib/avr/include/avr/power.h ****     <td>ATxmega16A4, ATxmega16A4U, ATxmega32A4U, ATxmega32A4, ATxmega64A1, ATxmega64A1U, ATxmega64A
 879:/usr/lib/avr/include/avr/power.h ****   </tr>
 880:/usr/lib/avr/include/avr/power.h **** 
 881:/usr/lib/avr/include/avr/power.h ****   <tr>
 882:/usr/lib/avr/include/avr/power.h ****    <td>power_usarte1_enable()</td>
 883:/usr/lib/avr/include/avr/power.h ****     <td> Enable the USART1 module on PortE </td>
 884:/usr/lib/avr/include/avr/power.h ****     <td>ATxmega16A4, ATxmega16A4U, ATxmega32A4U, ATxmega32A4, ATxmega64A1, ATxmega64A1U, ATxmega64A
 885:/usr/lib/avr/include/avr/power.h ****   </tr>
 886:/usr/lib/avr/include/avr/power.h **** 
 887:/usr/lib/avr/include/avr/power.h ****   <tr>
 888:/usr/lib/avr/include/avr/power.h ****    <td>power_usartf0_disable()</td>
 889:/usr/lib/avr/include/avr/power.h ****     <td> Disable the USART0 module on PortF </td>
 890:/usr/lib/avr/include/avr/power.h ****     <td>ATxmega16C4, ATxmega32C4, ATxmega32C3, ATxmega64C3, ATxmega128C3, ATxmega192C3, ATxmega256C
 891:/usr/lib/avr/include/avr/power.h ****   </tr>
 892:/usr/lib/avr/include/avr/power.h **** 
 893:/usr/lib/avr/include/avr/power.h ****   <tr>
 894:/usr/lib/avr/include/avr/power.h ****    <td>power_usartf0_enable()</td>
 895:/usr/lib/avr/include/avr/power.h ****     <td> Enable the USART0 module on PortF </td>
 896:/usr/lib/avr/include/avr/power.h ****     <td>ATxmega16C4, ATxmega32C4, ATxmega32C3, ATxmega64C3, ATxmega128C3, ATxmega192C3, ATxmega256C
 897:/usr/lib/avr/include/avr/power.h ****   </tr>
 898:/usr/lib/avr/include/avr/power.h **** 
 899:/usr/lib/avr/include/avr/power.h ****   <tr>
 900:/usr/lib/avr/include/avr/power.h ****    <td>power_usartf1_disable()</td>
 901:/usr/lib/avr/include/avr/power.h ****     <td> Disable the USART1 module on PortF </td>
 902:/usr/lib/avr/include/avr/power.h ****     <td>ATxmega16A4, ATxmega16A4U, ATxmega32A4U, ATxmega32A4, ATxmega64A1, ATxmega64A1U, ATxmega64A
 903:/usr/lib/avr/include/avr/power.h ****   </tr>
 904:/usr/lib/avr/include/avr/power.h **** 
 905:/usr/lib/avr/include/avr/power.h ****   <tr>
 906:/usr/lib/avr/include/avr/power.h ****    <td>power_usartf1_enable()</td>
 907:/usr/lib/avr/include/avr/power.h ****     <td> Enable the USART1 module on PortF </td>
 908:/usr/lib/avr/include/avr/power.h ****     <td>ATxmega16A4, ATxmega16A4U, ATxmega32A4U, ATxmega32A4, ATxmega64A1, ATxmega64A1U, ATxmega64A
 909:/usr/lib/avr/include/avr/power.h ****   </tr>
 910:/usr/lib/avr/include/avr/power.h **** 
 911:/usr/lib/avr/include/avr/power.h ****   <tr>
 912:/usr/lib/avr/include/avr/power.h ****    <td>power_usb_disable()</td>
 913:/usr/lib/avr/include/avr/power.h ****      <td>Disable the USB module.</td>
 914:/usr/lib/avr/include/avr/power.h ****     <td>ATxmega384C3, ATxmega256A3BU, ATxmega16A4U, ATxmega32A4U, ATxmega64A3U, ATxmega64A4U, ATxme
 915:/usr/lib/avr/include/avr/power.h ****   </tr>
 916:/usr/lib/avr/include/avr/power.h **** 
 917:/usr/lib/avr/include/avr/power.h ****   <tr>
 918:/usr/lib/avr/include/avr/power.h ****    <td>power_usb_enable()</td>
 919:/usr/lib/avr/include/avr/power.h ****      <td>Enable the USB module.</td>
 920:/usr/lib/avr/include/avr/power.h ****     <td>ATxmega384C3, ATxmega256A3BU, ATxmega16A4U, ATxmega32A4U, ATxmega64A3U, ATxmega64A4U, ATxme
 921:/usr/lib/avr/include/avr/power.h ****   </tr>
 922:/usr/lib/avr/include/avr/power.h **** 
 923:/usr/lib/avr/include/avr/power.h ****   <tr>
 924:/usr/lib/avr/include/avr/power.h ****    <td>power_usbh_disable()</td>
 925:/usr/lib/avr/include/avr/power.h ****     <td> Disable the USBH module </td>
 926:/usr/lib/avr/include/avr/power.h ****     <td>AT90SCR100</td>
 927:/usr/lib/avr/include/avr/power.h ****   </tr>
 928:/usr/lib/avr/include/avr/power.h **** 
 929:/usr/lib/avr/include/avr/power.h ****   <tr>
 930:/usr/lib/avr/include/avr/power.h ****    <td>power_usbh_enable()</td>
 931:/usr/lib/avr/include/avr/power.h ****     <td> Enable the USBH module </td>
 932:/usr/lib/avr/include/avr/power.h ****     <td>AT90SCR100</td>
 933:/usr/lib/avr/include/avr/power.h ****   </tr>
 934:/usr/lib/avr/include/avr/power.h **** 
 935:/usr/lib/avr/include/avr/power.h ****   <tr>
 936:/usr/lib/avr/include/avr/power.h ****    <td>power_usi_disable()</td>
 937:/usr/lib/avr/include/avr/power.h ****      <td>Disable the Universal Serial Interface module.</td>
 938:/usr/lib/avr/include/avr/power.h ****     <td>ATtiny24, ATtiny24A, ATtiny44, ATtiny44A, ATtiny84, ATtiny84A, ATtiny25, ATtiny45, ATtiny85
 939:/usr/lib/avr/include/avr/power.h ****   </tr>
 940:/usr/lib/avr/include/avr/power.h **** 
 941:/usr/lib/avr/include/avr/power.h ****   <tr>
 942:/usr/lib/avr/include/avr/power.h ****    <td>power_usi_enable()</td>
 943:/usr/lib/avr/include/avr/power.h ****      <td>Enable the Universal Serial Interface module.</td>
 944:/usr/lib/avr/include/avr/power.h ****     <td>ATtiny24, ATtiny24A, ATtiny44, ATtiny44A, ATtiny84, ATtiny84A, ATtiny25, ATtiny45, ATtiny85
 945:/usr/lib/avr/include/avr/power.h ****   </tr>
 946:/usr/lib/avr/include/avr/power.h **** 
 947:/usr/lib/avr/include/avr/power.h ****   <tr>
 948:/usr/lib/avr/include/avr/power.h ****    <td>power_vadc_disable()</td>
 949:/usr/lib/avr/include/avr/power.h ****      <td>Disable the Voltage ADC module.</td>
 950:/usr/lib/avr/include/avr/power.h ****     <td>ATmega406, ATmega32HVB, ATmega32HVBrevB, ATmega16HVB, ATmega16HVBrevB</td>
 951:/usr/lib/avr/include/avr/power.h ****   </tr>
 952:/usr/lib/avr/include/avr/power.h **** 
 953:/usr/lib/avr/include/avr/power.h ****   <tr>
 954:/usr/lib/avr/include/avr/power.h ****    <td>power_vadc_enable()</td>
 955:/usr/lib/avr/include/avr/power.h ****      <td>Enable the Voltage ADC module.</td>
 956:/usr/lib/avr/include/avr/power.h ****     <td>ATmega406, ATmega32HVB, ATmega32HVBrevB, ATmega16HVB, ATmega16HVBrevB</td>
 957:/usr/lib/avr/include/avr/power.h ****   </tr>
 958:/usr/lib/avr/include/avr/power.h **** 
 959:/usr/lib/avr/include/avr/power.h ****   <tr>
 960:/usr/lib/avr/include/avr/power.h ****    <td>power_vmonitor_disable()</td>
 961:/usr/lib/avr/include/avr/power.h ****     <td> Disable the VMONITOR module </td>
 962:/usr/lib/avr/include/avr/power.h ****     <td>ATA5790, ATA5795</td>
 963:/usr/lib/avr/include/avr/power.h ****   </tr>
 964:/usr/lib/avr/include/avr/power.h **** 
 965:/usr/lib/avr/include/avr/power.h ****   <tr>
 966:/usr/lib/avr/include/avr/power.h ****    <td>power_vmonitor_enable()</td>
 967:/usr/lib/avr/include/avr/power.h ****     <td> Enable the VMONITOR module </td>
 968:/usr/lib/avr/include/avr/power.h ****     <td>ATA5790, ATA5795</td>
 969:/usr/lib/avr/include/avr/power.h ****   </tr>
 970:/usr/lib/avr/include/avr/power.h **** 
 971:/usr/lib/avr/include/avr/power.h ****   <tr>
 972:/usr/lib/avr/include/avr/power.h ****    <td>power_vrm_disable()</td>
 973:/usr/lib/avr/include/avr/power.h ****     <td> Disable the VRM module </td>
 974:/usr/lib/avr/include/avr/power.h ****     <td>ATmega32HVB, ATmega32HVBrevB, ATmega16HVB, ATmega16HVBrevB</td>
 975:/usr/lib/avr/include/avr/power.h ****   </tr>
 976:/usr/lib/avr/include/avr/power.h **** 
 977:/usr/lib/avr/include/avr/power.h ****   <tr>
 978:/usr/lib/avr/include/avr/power.h ****    <td>power_vrm_enable()</td>
 979:/usr/lib/avr/include/avr/power.h ****     <td> Enable the VRM module </td>
 980:/usr/lib/avr/include/avr/power.h ****     <td>ATmega32HVB, ATmega32HVBrevB, ATmega16HVB, ATmega16HVBrevB</td>
 981:/usr/lib/avr/include/avr/power.h ****   </tr>
 982:/usr/lib/avr/include/avr/power.h **** 
 983:/usr/lib/avr/include/avr/power.h ****   <tr>
 984:/usr/lib/avr/include/avr/power.h ****     <td>power_clock_output_enable()</td>
 985:/usr/lib/avr/include/avr/power.h ****     <td>Enable clock output module</td>
 986:/usr/lib/avr/include/avr/power.h ****     <td>ATA5702M322, ATA5782, ATA5831</td>
 987:/usr/lib/avr/include/avr/power.h ****   </tr>
 988:/usr/lib/avr/include/avr/power.h **** 
 989:/usr/lib/avr/include/avr/power.h ****   <tr>
 990:/usr/lib/avr/include/avr/power.h ****     <td>power_clock_output_disable()</td>
 991:/usr/lib/avr/include/avr/power.h ****     <td>Enable clock output module</td>
 992:/usr/lib/avr/include/avr/power.h ****     <td>ATA5702M322, ATA5782, ATA5831</td>
 993:/usr/lib/avr/include/avr/power.h ****   </tr>
 994:/usr/lib/avr/include/avr/power.h **** 
 995:/usr/lib/avr/include/avr/power.h ****   <tr>
 996:/usr/lib/avr/include/avr/power.h ****     <td>power_voltage_monitor_enable()</td>
 997:/usr/lib/avr/include/avr/power.h ****     <td>Enable voltage monitor module</td>
 998:/usr/lib/avr/include/avr/power.h ****     <td>ATA5702M322, ATA5782, ATA5831</td>
 999:/usr/lib/avr/include/avr/power.h ****   </tr>
1000:/usr/lib/avr/include/avr/power.h **** 
1001:/usr/lib/avr/include/avr/power.h ****   <tr>
1002:/usr/lib/avr/include/avr/power.h ****     <td>power_voltage_monitor_disable()</td>
1003:/usr/lib/avr/include/avr/power.h ****     <td>Disable voltage monitor module</td>
1004:/usr/lib/avr/include/avr/power.h ****     <td>ATA5702M322, ATA5782, ATA5831</td>
1005:/usr/lib/avr/include/avr/power.h ****   </tr>
1006:/usr/lib/avr/include/avr/power.h **** 
1007:/usr/lib/avr/include/avr/power.h ****   <tr>
1008:/usr/lib/avr/include/avr/power.h ****     <td>power_crc_enable()</td>
1009:/usr/lib/avr/include/avr/power.h ****     <td>Enable CRC module</td>
1010:/usr/lib/avr/include/avr/power.h ****     <td>ATA5702M322, ATA5782, ATA5831</td>
1011:/usr/lib/avr/include/avr/power.h ****   </tr>
1012:/usr/lib/avr/include/avr/power.h **** 
1013:/usr/lib/avr/include/avr/power.h ****   <tr>
1014:/usr/lib/avr/include/avr/power.h ****     <td>power_crc_disable()</td>
1015:/usr/lib/avr/include/avr/power.h ****     <td>Disable CRC module</td>
1016:/usr/lib/avr/include/avr/power.h ****     <td>ATA5702M322, ATA5782, ATA5831</td>
1017:/usr/lib/avr/include/avr/power.h ****   </tr>
1018:/usr/lib/avr/include/avr/power.h **** 
1019:/usr/lib/avr/include/avr/power.h ****   <tr>
1020:/usr/lib/avr/include/avr/power.h ****     <td>power_transmit_dsp_control_enable()</td>
1021:/usr/lib/avr/include/avr/power.h ****     <td>Enable Transmit DSP control module</td>
1022:/usr/lib/avr/include/avr/power.h ****     <td>ATA5702M322, ATA5782, ATA5831</td>
1023:/usr/lib/avr/include/avr/power.h ****   </tr>
1024:/usr/lib/avr/include/avr/power.h **** 
1025:/usr/lib/avr/include/avr/power.h ****   <tr>
1026:/usr/lib/avr/include/avr/power.h ****     <td>power_transmit_dsp_control_disable()</td>
1027:/usr/lib/avr/include/avr/power.h ****     <td>Disable Transmit DSP control module</td>
1028:/usr/lib/avr/include/avr/power.h ****     <td>ATA5702M322, ATA5782, ATA5831</td>
1029:/usr/lib/avr/include/avr/power.h ****   </tr>
1030:/usr/lib/avr/include/avr/power.h **** 
1031:/usr/lib/avr/include/avr/power.h ****   <tr>
1032:/usr/lib/avr/include/avr/power.h ****     <td>power_receive_dsp_control_enable()</td>
1033:/usr/lib/avr/include/avr/power.h ****     <td>Enable Receive DSP control module</td>
1034:/usr/lib/avr/include/avr/power.h ****     <td>ATA5782, ATA5831</td>
1035:/usr/lib/avr/include/avr/power.h ****   </tr>
1036:/usr/lib/avr/include/avr/power.h **** 
1037:/usr/lib/avr/include/avr/power.h ****   <tr>
1038:/usr/lib/avr/include/avr/power.h ****     <td>power_receive_dsp_control_disable()</td>
1039:/usr/lib/avr/include/avr/power.h ****     <td>Disable Receive DSP control module</td>
1040:/usr/lib/avr/include/avr/power.h ****     <td>ATA5782, ATA5831</td>
1041:/usr/lib/avr/include/avr/power.h ****   </tr>
1042:/usr/lib/avr/include/avr/power.h **** 
1043:/usr/lib/avr/include/avr/power.h ****   <tr>
1044:/usr/lib/avr/include/avr/power.h ****     <td>power_sequencer_state_machine_enable()</td>
1045:/usr/lib/avr/include/avr/power.h ****     <td>Enable power sequencer state machine</td>
1046:/usr/lib/avr/include/avr/power.h ****     <td>ATA5702M322, ATA5782, ATA5831</td>
1047:/usr/lib/avr/include/avr/power.h ****   </tr>
1048:/usr/lib/avr/include/avr/power.h **** 
1049:/usr/lib/avr/include/avr/power.h ****   <tr>
1050:/usr/lib/avr/include/avr/power.h ****     <td>power_sequencer_state_machine_disable()</td>
1051:/usr/lib/avr/include/avr/power.h ****     <td>Disable power sequencer state machine</td>
1052:/usr/lib/avr/include/avr/power.h ****     <td>ATA5702M322, ATA5782, ATA5831</td>
1053:/usr/lib/avr/include/avr/power.h ****   </tr>
1054:/usr/lib/avr/include/avr/power.h **** 
1055:/usr/lib/avr/include/avr/power.h ****   <tr>
1056:/usr/lib/avr/include/avr/power.h ****     <td>power_tx_modulator_enable()</td>
1057:/usr/lib/avr/include/avr/power.h ****     <td>Enable Tx modulator</td>
1058:/usr/lib/avr/include/avr/power.h ****     <td>ATA5702M322, ATA5782, ATA5831</td>
1059:/usr/lib/avr/include/avr/power.h ****   </tr>
1060:/usr/lib/avr/include/avr/power.h **** 
1061:/usr/lib/avr/include/avr/power.h ****   <tr>
1062:/usr/lib/avr/include/avr/power.h ****     <td>power_tx_modulator_disable()</td>
1063:/usr/lib/avr/include/avr/power.h ****     <td>Disable Tx modulator</td>
1064:/usr/lib/avr/include/avr/power.h ****     <td>ATA5702M322, ATA5782, ATA5831</td>
1065:/usr/lib/avr/include/avr/power.h ****   </tr>
1066:/usr/lib/avr/include/avr/power.h **** 
1067:/usr/lib/avr/include/avr/power.h ****   <tr>
1068:/usr/lib/avr/include/avr/power.h ****     <td>power_rssi_buffer_enable()</td>
1069:/usr/lib/avr/include/avr/power.h ****     <td>Enable RSSI buffer</td>
1070:/usr/lib/avr/include/avr/power.h ****     <td>ATA5782, ATA5831</td>
1071:/usr/lib/avr/include/avr/power.h ****   </tr>
1072:/usr/lib/avr/include/avr/power.h **** 
1073:/usr/lib/avr/include/avr/power.h ****   <tr>
1074:/usr/lib/avr/include/avr/power.h ****     <td>power_rssi_buffer_disable()</td>
1075:/usr/lib/avr/include/avr/power.h ****     <td>Disable RSSI buffer</td>
1076:/usr/lib/avr/include/avr/power.h ****     <td>ATA5782, ATA5831</td>
1077:/usr/lib/avr/include/avr/power.h ****   </tr>
1078:/usr/lib/avr/include/avr/power.h **** 
1079:/usr/lib/avr/include/avr/power.h ****   <tr>
1080:/usr/lib/avr/include/avr/power.h ****     <td>power_id_scan_enable()</td>
1081:/usr/lib/avr/include/avr/power.h ****     <td>Enable ID Scan</td>
1082:/usr/lib/avr/include/avr/power.h ****     <td>ATA5782, ATA5831</td>
1083:/usr/lib/avr/include/avr/power.h ****   </tr>
1084:/usr/lib/avr/include/avr/power.h **** 
1085:/usr/lib/avr/include/avr/power.h ****   <tr>
1086:/usr/lib/avr/include/avr/power.h ****     <td>power_id_scan_disable()</td>
1087:/usr/lib/avr/include/avr/power.h ****     <td>Disable ID Scan</td>
1088:/usr/lib/avr/include/avr/power.h ****     <td>ATA5782, ATA5831</td>
1089:/usr/lib/avr/include/avr/power.h ****   </tr>
1090:/usr/lib/avr/include/avr/power.h **** 
1091:/usr/lib/avr/include/avr/power.h ****   <tr>
1092:/usr/lib/avr/include/avr/power.h ****     <td>power_data_fifo_enable()</td>
1093:/usr/lib/avr/include/avr/power.h ****     <td>Enable data FIFO</td>
1094:/usr/lib/avr/include/avr/power.h ****     <td>ATA5702M322, ATA5782, ATA5831</td>
1095:/usr/lib/avr/include/avr/power.h ****   </tr>
1096:/usr/lib/avr/include/avr/power.h **** 
1097:/usr/lib/avr/include/avr/power.h ****   <tr>
1098:/usr/lib/avr/include/avr/power.h ****     <td>power_data_fifo_disable()</td>
1099:/usr/lib/avr/include/avr/power.h ****     <td>Disable data FIFO</td>
1100:/usr/lib/avr/include/avr/power.h ****     <td>ATA5702M322, ATA5782, ATA5831</td>
1101:/usr/lib/avr/include/avr/power.h ****   </tr>
1102:/usr/lib/avr/include/avr/power.h **** 
1103:/usr/lib/avr/include/avr/power.h ****   <tr>
1104:/usr/lib/avr/include/avr/power.h ****     <td>power_preamble_rssi_fifo_enable()</td>
1105:/usr/lib/avr/include/avr/power.h ****     <td>Enable preamble/RSSI FIFO</td>
1106:/usr/lib/avr/include/avr/power.h ****     <td>ATA5702M322, ATA5782, ATA5831</td>
1107:/usr/lib/avr/include/avr/power.h ****   </tr>
1108:/usr/lib/avr/include/avr/power.h **** 
1109:/usr/lib/avr/include/avr/power.h ****   <tr>
1110:/usr/lib/avr/include/avr/power.h ****     <td>power_preamble_rssi_fifo_disable()</td>
1111:/usr/lib/avr/include/avr/power.h ****     <td>Disable preamble/RSSI FIFO</td>
1112:/usr/lib/avr/include/avr/power.h ****     <td>ATA5702M322, ATA5782, ATA5831</td>
1113:/usr/lib/avr/include/avr/power.h ****   </tr>
1114:/usr/lib/avr/include/avr/power.h **** 
1115:/usr/lib/avr/include/avr/power.h ****   <tr>
1116:/usr/lib/avr/include/avr/power.h ****     <td>power_rx_buffer_A_enable()</td>
1117:/usr/lib/avr/include/avr/power.h ****     <td>Enable receive buffer for data path A</td>
1118:/usr/lib/avr/include/avr/power.h ****     <td>ATA5782, ATA5831</td>
1119:/usr/lib/avr/include/avr/power.h ****   </tr>
1120:/usr/lib/avr/include/avr/power.h **** 
1121:/usr/lib/avr/include/avr/power.h ****   <tr>
1122:/usr/lib/avr/include/avr/power.h ****     <td>power_rx_buffer_A_disable()</td>
1123:/usr/lib/avr/include/avr/power.h ****     <td>Disable receive buffer for data path A</td>
1124:/usr/lib/avr/include/avr/power.h ****     <td>ATA5782, ATA5831</td>
1125:/usr/lib/avr/include/avr/power.h ****   </tr>
1126:/usr/lib/avr/include/avr/power.h **** 
1127:/usr/lib/avr/include/avr/power.h ****   <tr>
1128:/usr/lib/avr/include/avr/power.h ****     <td>power_rx_buffer_B_enable()</td>
1129:/usr/lib/avr/include/avr/power.h ****     <td>Enable receive buffer for data path B</td>
1130:/usr/lib/avr/include/avr/power.h ****     <td>ATA5782, ATA5831</td>
1131:/usr/lib/avr/include/avr/power.h ****   </tr>
1132:/usr/lib/avr/include/avr/power.h **** 
1133:/usr/lib/avr/include/avr/power.h ****   <tr>
1134:/usr/lib/avr/include/avr/power.h ****     <td>power_rx_buffer_B_disable()</td>
1135:/usr/lib/avr/include/avr/power.h ****     <td>Disable receive buffer for data path B</td>
1136:/usr/lib/avr/include/avr/power.h ****     <td>ATA5782, ATA5831</td>
1137:/usr/lib/avr/include/avr/power.h ****   </tr>
1138:/usr/lib/avr/include/avr/power.h **** 
1139:/usr/lib/avr/include/avr/power.h **** </table>
1140:/usr/lib/avr/include/avr/power.h **** </center>
1141:/usr/lib/avr/include/avr/power.h **** </small>
1142:/usr/lib/avr/include/avr/power.h **** 
1143:/usr/lib/avr/include/avr/power.h **** @} */
1144:/usr/lib/avr/include/avr/power.h **** 
1145:/usr/lib/avr/include/avr/power.h **** // Xmega A series has AES, EBI and DMA bits
1146:/usr/lib/avr/include/avr/power.h **** // Include any other device on need basis
1147:/usr/lib/avr/include/avr/power.h **** #if defined(__AVR_ATxmega16A4__) \
1148:/usr/lib/avr/include/avr/power.h **** || defined(__AVR_ATxmega16A4U__) \
1149:/usr/lib/avr/include/avr/power.h **** || defined(__AVR_ATxmega32A4U__) \
1150:/usr/lib/avr/include/avr/power.h **** || defined(__AVR_ATxmega32A4__) \
1151:/usr/lib/avr/include/avr/power.h **** || defined(__AVR_ATxmega64A1__) \
1152:/usr/lib/avr/include/avr/power.h **** || defined(__AVR_ATxmega64A1U__) \
1153:/usr/lib/avr/include/avr/power.h **** || defined(__AVR_ATxmega64A3__) \
1154:/usr/lib/avr/include/avr/power.h **** || defined(__AVR_ATxmega64A3U__) \
1155:/usr/lib/avr/include/avr/power.h **** || defined(__AVR_ATxmega64A4U__) \
1156:/usr/lib/avr/include/avr/power.h **** || defined(__AVR_ATxmega128A1__) \
1157:/usr/lib/avr/include/avr/power.h **** || defined(__AVR_ATxmega128A1U__) \
1158:/usr/lib/avr/include/avr/power.h **** || defined(__AVR_ATxmega128A3__) \
1159:/usr/lib/avr/include/avr/power.h **** || defined(__AVR_ATxmega128A3U__) \
1160:/usr/lib/avr/include/avr/power.h **** || defined(__AVR_ATxmega128A4U__) \
1161:/usr/lib/avr/include/avr/power.h **** || defined(__AVR_ATxmega192A3__) \
1162:/usr/lib/avr/include/avr/power.h **** || defined(__AVR_ATxmega192A3U__) \
1163:/usr/lib/avr/include/avr/power.h **** || defined(__AVR_ATxmega256A3__) \
1164:/usr/lib/avr/include/avr/power.h **** || defined(__AVR_ATxmega256A3U__) \
1165:/usr/lib/avr/include/avr/power.h **** || defined(__AVR_ATxmega256A3B__) \
1166:/usr/lib/avr/include/avr/power.h **** || defined(__AVR_ATxmega256A3BU__) \
1167:/usr/lib/avr/include/avr/power.h **** || defined(__AVR_ATxmega384C3__)
1168:/usr/lib/avr/include/avr/power.h **** 
1169:/usr/lib/avr/include/avr/power.h **** 
1170:/usr/lib/avr/include/avr/power.h **** #define power_aes_enable()  (PR_PRGEN &= (uint8_t)~(PR_AES_bm))
1171:/usr/lib/avr/include/avr/power.h **** #define power_aes_disable() (PR_PRGEN |= (uint8_t)PR_AES_bm)
1172:/usr/lib/avr/include/avr/power.h **** 
1173:/usr/lib/avr/include/avr/power.h **** #define power_ebi_enable()  (PR_PRGEN &= (uint8_t)~(PR_EBI_bm))
1174:/usr/lib/avr/include/avr/power.h **** #define power_ebi_disable() (PR_PRGEN |= (uint8_t)PR_EBI_bm)
1175:/usr/lib/avr/include/avr/power.h **** 
1176:/usr/lib/avr/include/avr/power.h **** #define power_dma_enable()    (PR_PRGEN &= (uint8_t)~(PR_DMA_bm))
1177:/usr/lib/avr/include/avr/power.h **** #define power_dma_disable()   (PR_PRGEN |= (uint8_t)PR_DMA_bm)
1178:/usr/lib/avr/include/avr/power.h **** 
1179:/usr/lib/avr/include/avr/power.h **** #define power_daca_enable()     (PR_PRPA &= (uint8_t)~(PR_DAC_bm))
1180:/usr/lib/avr/include/avr/power.h **** #define power_daca_disable()    (PR_PRPA |= (uint8_t)PR_DAC_bm)
1181:/usr/lib/avr/include/avr/power.h **** #define power_dacb_enable()     (PR_PRPB &= (uint8_t)~(PR_DAC_bm))
1182:/usr/lib/avr/include/avr/power.h **** #define power_dacb_disable()    (PR_PRPB |= (uint8_t)PR_DAC_bm)
1183:/usr/lib/avr/include/avr/power.h **** 
1184:/usr/lib/avr/include/avr/power.h **** #define power_usartc1_enable()  (PR_PRPC &= (uint8_t)~(PR_USART1_bm))
1185:/usr/lib/avr/include/avr/power.h **** #define power_usartc1_disable() (PR_PRPC |= (uint8_t)PR_USART1_bm)
1186:/usr/lib/avr/include/avr/power.h **** #define power_usartd1_enable()  (PR_PRPD &= (uint8_t)~(PR_USART1_bm))
1187:/usr/lib/avr/include/avr/power.h **** #define power_usartd1_disable() (PR_PRPD |= (uint8_t)PR_USART1_bm)
1188:/usr/lib/avr/include/avr/power.h **** #define power_usarte1_enable()  (PR_PRPE &= (uint8_t)~(PR_USART1_bm))
1189:/usr/lib/avr/include/avr/power.h **** #define power_usarte1_disable() (PR_PRPE |= (uint8_t)PR_USART1_bm)
1190:/usr/lib/avr/include/avr/power.h **** #define power_usartf1_enable()  (PR_PRPF &= (uint8_t)~(PR_USART1_bm))
1191:/usr/lib/avr/include/avr/power.h **** #define power_usartf1_disable() (PR_PRPF |= (uint8_t)PR_USART1_bm)
1192:/usr/lib/avr/include/avr/power.h **** 
1193:/usr/lib/avr/include/avr/power.h **** #if defined(__AVR_ATxmega384C3__) \
1194:/usr/lib/avr/include/avr/power.h **** || defined(__AVR_ATxmega256A3BU__) \
1195:/usr/lib/avr/include/avr/power.h **** || defined(__AVR_ATxmega16A4U__) \
1196:/usr/lib/avr/include/avr/power.h **** || defined(__AVR_ATxmega32A4U__) \
1197:/usr/lib/avr/include/avr/power.h **** || defined(__AVR_ATxmega64A3U__) \
1198:/usr/lib/avr/include/avr/power.h **** || defined(__AVR_ATxmega64A4U__) \
1199:/usr/lib/avr/include/avr/power.h **** || defined(__AVR_ATxmega128A3U__) \
1200:/usr/lib/avr/include/avr/power.h **** || defined(__AVR_ATxmega128A4U__) \
1201:/usr/lib/avr/include/avr/power.h **** || defined(__AVR_ATxmega192A3U__) \
1202:/usr/lib/avr/include/avr/power.h **** || defined(__AVR_ATxmega256A3U__) 
1203:/usr/lib/avr/include/avr/power.h **** 
1204:/usr/lib/avr/include/avr/power.h **** #define power_usb_enable()   (PR_PRGEN &= (uint8_t)~(PR_USB_bm))
1205:/usr/lib/avr/include/avr/power.h **** #define power_usb_disable()  (PR_PRGEN &= (uint8_t)(PR_USB_bm))
1206:/usr/lib/avr/include/avr/power.h **** 
1207:/usr/lib/avr/include/avr/power.h **** #define power_all_enable() \
1208:/usr/lib/avr/include/avr/power.h **** do { \
1209:/usr/lib/avr/include/avr/power.h ****     PR_PRGEN &= (uint8_t)~(PR_AES_bm|PR_EBI_bm|PR_RTC_bm|PR_EVSYS_bm|PR_DMA_bm|PR_USB_bm); \
1210:/usr/lib/avr/include/avr/power.h ****     PR_PRPA &= (uint8_t)~(PR_DAC_bm|PR_ADC_bm|PR_AC_bm); \
1211:/usr/lib/avr/include/avr/power.h ****     PR_PRPB &= (uint8_t)~(PR_DAC_bm|PR_ADC_bm|PR_AC_bm); \
1212:/usr/lib/avr/include/avr/power.h ****     PR_PRPC &= (uint8_t)~(PR_TWI_bm|PR_USART1_bm|PR_USART0_bm|PR_SPI_bm|PR_HIRES_bm|PR_TC1_bm|PR_TC
1213:/usr/lib/avr/include/avr/power.h ****     PR_PRPD &= (uint8_t)~(PR_TWI_bm|PR_USART1_bm|PR_USART0_bm|PR_SPI_bm|PR_HIRES_bm|PR_TC1_bm|PR_TC
1214:/usr/lib/avr/include/avr/power.h ****     PR_PRPE &= (uint8_t)~(PR_TWI_bm|PR_USART1_bm|PR_USART0_bm|PR_SPI_bm|PR_HIRES_bm|PR_TC1_bm|PR_TC
1215:/usr/lib/avr/include/avr/power.h ****     PR_PRPF &= (uint8_t)~(PR_TWI_bm|PR_USART1_bm|PR_USART0_bm|PR_SPI_bm|PR_HIRES_bm|PR_TC1_bm|PR_TC
1216:/usr/lib/avr/include/avr/power.h **** } while(0)
1217:/usr/lib/avr/include/avr/power.h **** 
1218:/usr/lib/avr/include/avr/power.h **** #define power_all_disable() \
1219:/usr/lib/avr/include/avr/power.h **** do { \
1220:/usr/lib/avr/include/avr/power.h ****     PR_PRGEN |= (uint8_t)(PR_AES_bm|PR_EBI_bm|PR_RTC_bm|PR_EVSYS_bm|PR_DMA_bm|PR_USB_bm); \
1221:/usr/lib/avr/include/avr/power.h ****     PR_PRPA |= (uint8_t)(PR_DAC_bm|PR_ADC_bm|PR_AC_bm); \
1222:/usr/lib/avr/include/avr/power.h ****     PR_PRPB |= (uint8_t)(PR_DAC_bm|PR_ADC_bm|PR_AC_bm); \
1223:/usr/lib/avr/include/avr/power.h ****     PR_PRPC |= (uint8_t)(PR_TWI_bm|PR_USART1_bm|PR_USART0_bm|PR_SPI_bm|PR_HIRES_bm|PR_TC1_bm|PR_TC0
1224:/usr/lib/avr/include/avr/power.h ****     PR_PRPD |= (uint8_t)(PR_TWI_bm|PR_USART1_bm|PR_USART0_bm|PR_SPI_bm|PR_HIRES_bm|PR_TC1_bm|PR_TC0
1225:/usr/lib/avr/include/avr/power.h ****     PR_PRPE |= (uint8_t)(PR_TWI_bm|PR_USART1_bm|PR_USART0_bm|PR_SPI_bm|PR_HIRES_bm|PR_TC1_bm|PR_TC0
1226:/usr/lib/avr/include/avr/power.h ****     PR_PRPF |= (uint8_t)(PR_TWI_bm|PR_USART1_bm|PR_USART0_bm|PR_SPI_bm|PR_HIRES_bm|PR_TC1_bm|PR_TC0
1227:/usr/lib/avr/include/avr/power.h **** } while(0)
1228:/usr/lib/avr/include/avr/power.h **** 
1229:/usr/lib/avr/include/avr/power.h **** #else
1230:/usr/lib/avr/include/avr/power.h **** 
1231:/usr/lib/avr/include/avr/power.h **** #define power_all_enable() \
1232:/usr/lib/avr/include/avr/power.h **** do { \
1233:/usr/lib/avr/include/avr/power.h ****     PR_PRGEN &= (uint8_t)~(PR_AES_bm|PR_EBI_bm|PR_RTC_bm|PR_EVSYS_bm|PR_DMA_bm); \
1234:/usr/lib/avr/include/avr/power.h ****     PR_PRPA &= (uint8_t)~(PR_DAC_bm|PR_ADC_bm|PR_AC_bm); \
1235:/usr/lib/avr/include/avr/power.h ****     PR_PRPB &= (uint8_t)~(PR_DAC_bm|PR_ADC_bm|PR_AC_bm); \
1236:/usr/lib/avr/include/avr/power.h ****     PR_PRPC &= (uint8_t)~(PR_TWI_bm|PR_USART1_bm|PR_USART0_bm|PR_SPI_bm|PR_HIRES_bm|PR_TC1_bm|PR_TC
1237:/usr/lib/avr/include/avr/power.h ****     PR_PRPD &= (uint8_t)~(PR_TWI_bm|PR_USART1_bm|PR_USART0_bm|PR_SPI_bm|PR_HIRES_bm|PR_TC1_bm|PR_TC
1238:/usr/lib/avr/include/avr/power.h ****     PR_PRPE &= (uint8_t)~(PR_TWI_bm|PR_USART1_bm|PR_USART0_bm|PR_SPI_bm|PR_HIRES_bm|PR_TC1_bm|PR_TC
1239:/usr/lib/avr/include/avr/power.h ****     PR_PRPF &= (uint8_t)~(PR_TWI_bm|PR_USART1_bm|PR_USART0_bm|PR_SPI_bm|PR_HIRES_bm|PR_TC1_bm|PR_TC
1240:/usr/lib/avr/include/avr/power.h **** } while(0)
1241:/usr/lib/avr/include/avr/power.h **** 
1242:/usr/lib/avr/include/avr/power.h **** 
1243:/usr/lib/avr/include/avr/power.h **** #define power_all_disable() \
1244:/usr/lib/avr/include/avr/power.h **** do { \
1245:/usr/lib/avr/include/avr/power.h ****     PR_PRGEN|= (uint8_t)(PR_AES_bm|PR_EBI_bm|PR_RTC_bm|PR_EVSYS_bm|PR_DMA_bm); \
1246:/usr/lib/avr/include/avr/power.h ****     PR_PRPA |= (uint8_t)(PR_DAC_bm|PR_ADC_bm|PR_AC_bm); \
1247:/usr/lib/avr/include/avr/power.h ****     PR_PRPB |= (uint8_t)(PR_DAC_bm|PR_ADC_bm|PR_AC_bm); \
1248:/usr/lib/avr/include/avr/power.h ****     PR_PRPC |= (uint8_t)(PR_TWI_bm|PR_USART1_bm|PR_USART0_bm|PR_SPI_bm|PR_HIRES_bm|PR_TC1_bm|PR_TC0
1249:/usr/lib/avr/include/avr/power.h ****     PR_PRPD |= (uint8_t)(PR_TWI_bm|PR_USART1_bm|PR_USART0_bm|PR_SPI_bm|PR_HIRES_bm|PR_TC1_bm|PR_TC0
1250:/usr/lib/avr/include/avr/power.h ****     PR_PRPE |= (uint8_t)(PR_TWI_bm|PR_USART1_bm|PR_USART0_bm|PR_SPI_bm|PR_HIRES_bm|PR_TC1_bm|PR_TC0
1251:/usr/lib/avr/include/avr/power.h ****     PR_PRPF |= (uint8_t)(PR_TWI_bm|PR_USART1_bm|PR_USART0_bm|PR_SPI_bm|PR_HIRES_bm|PR_TC1_bm|PR_TC0
1252:/usr/lib/avr/include/avr/power.h **** } while(0)
1253:/usr/lib/avr/include/avr/power.h **** #endif
1254:/usr/lib/avr/include/avr/power.h **** 
1255:/usr/lib/avr/include/avr/power.h **** #endif
1256:/usr/lib/avr/include/avr/power.h **** 
1257:/usr/lib/avr/include/avr/power.h **** #if defined(__AVR_ATxmega16C4__) \
1258:/usr/lib/avr/include/avr/power.h **** || defined(__AVR_ATxmega32C3__) \
1259:/usr/lib/avr/include/avr/power.h **** || defined(__AVR_ATxmega32C4__) \
1260:/usr/lib/avr/include/avr/power.h **** || defined(__AVR_ATxmega64C3__) \
1261:/usr/lib/avr/include/avr/power.h **** || defined(__AVR_ATxmega128C3__) \
1262:/usr/lib/avr/include/avr/power.h **** || defined(__AVR_ATxmega192C3__) \
1263:/usr/lib/avr/include/avr/power.h **** || defined(__AVR_ATxmega256C3__) 
1264:/usr/lib/avr/include/avr/power.h **** 
1265:/usr/lib/avr/include/avr/power.h **** #define power_usb_enable()   (PR_PRGEN &= (uint8_t)~(PR_USB_bm))
1266:/usr/lib/avr/include/avr/power.h **** #define power_usb_disable()  (PR_PRGEN &= (uint8_t)(PR_USB_bm))
1267:/usr/lib/avr/include/avr/power.h **** 
1268:/usr/lib/avr/include/avr/power.h **** #define power_aes_enable()  (PR_PRGEN &= (uint8_t)~(PR_AES_bm))
1269:/usr/lib/avr/include/avr/power.h **** #define power_aes_disable() (PR_PRGEN |= (uint8_t)PR_AES_bm)
1270:/usr/lib/avr/include/avr/power.h **** 
1271:/usr/lib/avr/include/avr/power.h **** #define power_rtc_enable()  (PR_PRGEN &= (uint8_t)~(PR_RTC_bm))
1272:/usr/lib/avr/include/avr/power.h **** #define power_rtc_disable() (PR_PRGEN |= (uint8_t)PR_RTC_bm)
1273:/usr/lib/avr/include/avr/power.h **** 
1274:/usr/lib/avr/include/avr/power.h **** #define power_evsys_enable()    (PR_PRGEN &= (uint8_t)~(PR_EVSYS_bm))
1275:/usr/lib/avr/include/avr/power.h **** #define power_evsys_disable()   (PR_PRGEN |= (uint8_t)PR_EVSYS_bm)
1276:/usr/lib/avr/include/avr/power.h **** 
1277:/usr/lib/avr/include/avr/power.h **** #define power_dma_enable()    (PR_PRGEN &= (uint8_t)~(PR_DMA_bm))
1278:/usr/lib/avr/include/avr/power.h **** #define power_dma_disable()   (PR_PRGEN |= (uint8_t)PR_DMA_bm)
1279:/usr/lib/avr/include/avr/power.h **** 
1280:/usr/lib/avr/include/avr/power.h **** #define power_adca_enable()     (PR_PRPA &= (uint8_t)~(PR_ADC_bm))
1281:/usr/lib/avr/include/avr/power.h **** #define power_adca_disable()    (PR_PRPA |= (uint8_t)PR_ADC_bm)
1282:/usr/lib/avr/include/avr/power.h **** 
1283:/usr/lib/avr/include/avr/power.h **** #define power_aca_enable()      (PR_PRPA &= (uint8_t)~(PR_AC_bm))
1284:/usr/lib/avr/include/avr/power.h **** #define power_aca_disable()     (PR_PRPA |= (uint8_t)PR_AC_bm)
1285:/usr/lib/avr/include/avr/power.h **** 
1286:/usr/lib/avr/include/avr/power.h **** #define power_twic_enable()     (PR_PRPC &= (uint8_t)~(PR_TWI_bm))
1287:/usr/lib/avr/include/avr/power.h **** #define power_twic_disable()    (PR_PRPC |= (uint8_t)PR_TWI_bm)
1288:/usr/lib/avr/include/avr/power.h **** #define power_twie_enable()     (PR_PRPE &= (uint8_t)~(PR_TWI_bm))
1289:/usr/lib/avr/include/avr/power.h **** #define power_twie_disable()    (PR_PRPE |= (uint8_t)PR_TWI_bm)
1290:/usr/lib/avr/include/avr/power.h **** 
1291:/usr/lib/avr/include/avr/power.h **** #define power_usartc1_enable()  (PR_PRPC &= (uint8_t)~(PR_USART1_bm))
1292:/usr/lib/avr/include/avr/power.h **** #define power_usartc1_disable() (PR_PRPC |= (uint8_t)PR_USART1_bm)
1293:/usr/lib/avr/include/avr/power.h **** 
1294:/usr/lib/avr/include/avr/power.h **** #define power_usartc0_enable()  (PR_PRPC &= (uint8_t)~(PR_USART0_bm))
1295:/usr/lib/avr/include/avr/power.h **** #define power_usartc0_disable() (PR_PRPC |= (uint8_t)PR_USART0_bm)
1296:/usr/lib/avr/include/avr/power.h **** #define power_usartd0_enable()  (PR_PRPD &= (uint8_t)~(PR_USART0_bm))
1297:/usr/lib/avr/include/avr/power.h **** #define power_usartd0_disable() (PR_PRPD |= (uint8_t)PR_USART0_bm)
1298:/usr/lib/avr/include/avr/power.h **** #define power_usarte0_enable()  (PR_PRPE &= (uint8_t)~(PR_USART0_bm))
1299:/usr/lib/avr/include/avr/power.h **** #define power_usarte0_disable() (PR_PRPE |= (uint8_t)PR_USART0_bm)
1300:/usr/lib/avr/include/avr/power.h **** #define power_usartf0_enable()  (PR_PRPF &= (uint8_t)~(PR_USART0_bm))
1301:/usr/lib/avr/include/avr/power.h **** #define power_usartf0_disable() (PR_PRPF |= (uint8_t)PR_USART0_bm)
1302:/usr/lib/avr/include/avr/power.h **** 
1303:/usr/lib/avr/include/avr/power.h **** #define power_spic_enable()     (PR_PRPC &= (uint8_t)~(PR_SPI_bm))
1304:/usr/lib/avr/include/avr/power.h **** #define power_spic_disable()    (PR_PRPC |= (uint8_t)PR_SPI_bm)
1305:/usr/lib/avr/include/avr/power.h **** #define power_spid_enable()     (PR_PRPD &= (uint8_t)~(PR_SPI_bm))
1306:/usr/lib/avr/include/avr/power.h **** #define power_spid_disable()    (PR_PRPD |= (uint8_t)PR_SPI_bm)
1307:/usr/lib/avr/include/avr/power.h **** 
1308:/usr/lib/avr/include/avr/power.h **** #define power_hiresc_enable()   (PR_PRPC &= (uint8_t)~(PR_HIRES_bm))
1309:/usr/lib/avr/include/avr/power.h **** #define power_hiresc_disable()  (PR_PRPC |= (uint8_t)PR_HIRES_bm)
1310:/usr/lib/avr/include/avr/power.h **** 
1311:/usr/lib/avr/include/avr/power.h **** #define power_tc1c_enable()     (PR_PRPC &= (uint8_t)~(PR_TC1_bm))
1312:/usr/lib/avr/include/avr/power.h **** #define power_tc1c_disable()    (PR_PRPC |= (uint8_t)PR_TC1_bm)
1313:/usr/lib/avr/include/avr/power.h **** 
1314:/usr/lib/avr/include/avr/power.h **** #define power_tc0c_enable()     (PR_PRPC &= (uint8_t)~(PR_TC0_bm))
1315:/usr/lib/avr/include/avr/power.h **** #define power_tc0c_disable()    (PR_PRPC |= (uint8_t)PR_TC0_bm)
1316:/usr/lib/avr/include/avr/power.h **** #define power_tc0d_enable()     (PR_PRPD &= (uint8_t)~(PR_TC0_bm))
1317:/usr/lib/avr/include/avr/power.h **** #define power_tc0d_disable()    (PR_PRPD |= (uint8_t)PR_TC0_bm)
1318:/usr/lib/avr/include/avr/power.h **** #define power_tc0e_enable()     (PR_PRPE &= (uint8_t)~(PR_TC0_bm))
1319:/usr/lib/avr/include/avr/power.h **** #define power_tc0e_disable()    (PR_PRPE |= (uint8_t)PR_TC0_bm)
1320:/usr/lib/avr/include/avr/power.h **** #define power_tc0f_enable()     (PR_PRPF &= (uint8_t)~(PR_TC0_bm))
1321:/usr/lib/avr/include/avr/power.h **** #define power_tc0f_disable()    (PR_PRPF |= (uint8_t)PR_TC0_bm)
1322:/usr/lib/avr/include/avr/power.h **** 
1323:/usr/lib/avr/include/avr/power.h **** #define power_all_enable() \
1324:/usr/lib/avr/include/avr/power.h **** do { \
1325:/usr/lib/avr/include/avr/power.h ****     PR_PRGEN &= (uint8_t)~(PR_USB_bm|PR_AES_bm|PR_DMA_bm|PR_RTC_bm|PR_EVSYS_bm); \
1326:/usr/lib/avr/include/avr/power.h ****     PR_PRPA &= (uint8_t)~(PR_ADC_bm|PR_AC_bm); \
1327:/usr/lib/avr/include/avr/power.h ****     PR_PRPC &= (uint8_t)~(PR_TWI_bm|PR_USART0_bm|PR_USART1_bm|PR_SPI_bm|PR_HIRES_bm|PR_TC1_bm|PR_TC
1328:/usr/lib/avr/include/avr/power.h ****     PR_PRPD &= (uint8_t)~(PR_USART0_bm|PR_SPI_bm|PR_TC0_bm); \
1329:/usr/lib/avr/include/avr/power.h ****     PR_PRPE &= (uint8_t)~(PR_TWI_bm|PR_USART0_bm|PR_TC0_bm); \
1330:/usr/lib/avr/include/avr/power.h ****     PR_PRPF &= (uint8_t)~(PR_USART0_bm|PR_TC0_bm); \
1331:/usr/lib/avr/include/avr/power.h ****     } while(0)
1332:/usr/lib/avr/include/avr/power.h **** 
1333:/usr/lib/avr/include/avr/power.h **** #define power_all_disable() \
1334:/usr/lib/avr/include/avr/power.h **** do { \
1335:/usr/lib/avr/include/avr/power.h ****     PR_PRGEN |= (uint8_t)(PR_USB_bm|PR_AES_bm|PR_DMA_bm|PR_RTC_bm|PR_EVSYS_bm); \
1336:/usr/lib/avr/include/avr/power.h ****     PR_PRPA |= (uint8_t)(PR_ADC_bm|PR_AC_bm); \
1337:/usr/lib/avr/include/avr/power.h ****     PR_PRPC |= (uint8_t)(PR_TWI_bm|PR_USART0_bm|PR_USART1_bm|PR_SPI_bm|PR_HIRES_bm|PR_TC1_bm|PR_TC0
1338:/usr/lib/avr/include/avr/power.h ****     PR_PRPD |= (uint8_t)(PR_USART0_bm|PR_SPI_bm|PR_TC0_bm); \
1339:/usr/lib/avr/include/avr/power.h ****     PR_PRPE |= (uint8_t)(PR_TWI_bm|PR_USART0_bm|PR_TC0_bm); \
1340:/usr/lib/avr/include/avr/power.h ****     PR_PRPF |= (uint8_t)(PR_USART0_bm|PR_TC0_bm); \
1341:/usr/lib/avr/include/avr/power.h ****     } while(0)
1342:/usr/lib/avr/include/avr/power.h **** 
1343:/usr/lib/avr/include/avr/power.h **** #endif
1344:/usr/lib/avr/include/avr/power.h **** 
1345:/usr/lib/avr/include/avr/power.h **** #if defined(__AVR_ATxmega16A4__) \
1346:/usr/lib/avr/include/avr/power.h **** || defined(__AVR_ATxmega16A4U__) \
1347:/usr/lib/avr/include/avr/power.h **** || defined(__AVR_ATxmega16D4__) \
1348:/usr/lib/avr/include/avr/power.h **** || defined(__AVR_ATxmega32A4__) \
1349:/usr/lib/avr/include/avr/power.h **** || defined(__AVR_ATxmega32A4U__) \
1350:/usr/lib/avr/include/avr/power.h **** || defined(__AVR_ATxmega32D3__) \
1351:/usr/lib/avr/include/avr/power.h **** || defined(__AVR_ATxmega32D4__) \
1352:/usr/lib/avr/include/avr/power.h **** || defined(__AVR_ATxmega64A1__) \
1353:/usr/lib/avr/include/avr/power.h **** || defined(__AVR_ATxmega64A1U__) \
1354:/usr/lib/avr/include/avr/power.h **** || defined(__AVR_ATxmega64A3__) \
1355:/usr/lib/avr/include/avr/power.h **** || defined(__AVR_ATxmega64A3U__) \
1356:/usr/lib/avr/include/avr/power.h **** || defined(__AVR_ATxmega64A4U__) \
1357:/usr/lib/avr/include/avr/power.h **** || defined(__AVR_ATxmega128A1__) \
1358:/usr/lib/avr/include/avr/power.h **** || defined(__AVR_ATxmega128A1U__) \
1359:/usr/lib/avr/include/avr/power.h **** || defined(__AVR_ATxmega128A3__) \
1360:/usr/lib/avr/include/avr/power.h **** || defined(__AVR_ATxmega128A3U__) \
1361:/usr/lib/avr/include/avr/power.h **** || defined(__AVR_ATxmega128A4U__) \
1362:/usr/lib/avr/include/avr/power.h **** || defined(__AVR_ATxmega192A3__) \
1363:/usr/lib/avr/include/avr/power.h **** || defined(__AVR_ATxmega192A3U__) \
1364:/usr/lib/avr/include/avr/power.h **** || defined(__AVR_ATxmega256A3__) \
1365:/usr/lib/avr/include/avr/power.h **** || defined(__AVR_ATxmega256A3U__) \
1366:/usr/lib/avr/include/avr/power.h **** || defined(__AVR_ATxmega256A3B__) \
1367:/usr/lib/avr/include/avr/power.h **** || defined(__AVR_ATxmega256A3BU__) \
1368:/usr/lib/avr/include/avr/power.h **** || defined(__AVR_ATxmega384C3__)
1369:/usr/lib/avr/include/avr/power.h **** 
1370:/usr/lib/avr/include/avr/power.h **** 
1371:/usr/lib/avr/include/avr/power.h **** #define power_rtc_enable()  (PR_PRGEN &= (uint8_t)~(PR_RTC_bm))
1372:/usr/lib/avr/include/avr/power.h **** #define power_rtc_disable() (PR_PRGEN |= (uint8_t)PR_RTC_bm)
1373:/usr/lib/avr/include/avr/power.h **** 
1374:/usr/lib/avr/include/avr/power.h **** #define power_evsys_enable()    (PR_PRGEN &= (uint8_t)~(PR_EVSYS_bm))
1375:/usr/lib/avr/include/avr/power.h **** #define power_evsys_disable()   (PR_PRGEN |= (uint8_t)PR_EVSYS_bm)
1376:/usr/lib/avr/include/avr/power.h **** 
1377:/usr/lib/avr/include/avr/power.h **** #define power_adca_enable()     (PR_PRPA &= (uint8_t)~(PR_ADC_bm))
1378:/usr/lib/avr/include/avr/power.h **** #define power_adca_disable()    (PR_PRPA |= (uint8_t)PR_ADC_bm)
1379:/usr/lib/avr/include/avr/power.h **** 
1380:/usr/lib/avr/include/avr/power.h **** #ifndef __AVR_ATxmega32D3__
1381:/usr/lib/avr/include/avr/power.h **** #define power_adcb_enable()     (PR_PRPB &= (uint8_t)~(PR_ADC_bm))
1382:/usr/lib/avr/include/avr/power.h **** #define power_adcb_disable()    (PR_PRPB |= (uint8_t)PR_ADC_bm)
1383:/usr/lib/avr/include/avr/power.h **** #define power_acb_enable()      (PR_PRPB &= (uint8_t)~(PR_AC_bm))
1384:/usr/lib/avr/include/avr/power.h **** #define power_acb_disable()     (PR_PRPB |= (uint8_t)PR_AC_bm)
1385:/usr/lib/avr/include/avr/power.h **** #endif
1386:/usr/lib/avr/include/avr/power.h **** 
1387:/usr/lib/avr/include/avr/power.h **** #define power_aca_enable()      (PR_PRPA &= (uint8_t)~(PR_AC_bm))
1388:/usr/lib/avr/include/avr/power.h **** #define power_aca_disable()     (PR_PRPA |= (uint8_t)PR_AC_bm)
1389:/usr/lib/avr/include/avr/power.h **** 
1390:/usr/lib/avr/include/avr/power.h **** #define power_twic_enable()     (PR_PRPC &= (uint8_t)~(PR_TWI_bm))
1391:/usr/lib/avr/include/avr/power.h **** #define power_twic_disable()    (PR_PRPC |= (uint8_t)PR_TWI_bm)
1392:/usr/lib/avr/include/avr/power.h **** #define power_twid_enable()     (PR_PRPD &= (uint8_t)~(PR_TWI_bm))
1393:/usr/lib/avr/include/avr/power.h **** #define power_twid_disable()    (PR_PRPD |= (uint8_t)PR_TWI_bm)
1394:/usr/lib/avr/include/avr/power.h **** #define power_twie_enable()     (PR_PRPE &= (uint8_t)~(PR_TWI_bm))
1395:/usr/lib/avr/include/avr/power.h **** #define power_twie_disable()    (PR_PRPE |= (uint8_t)PR_TWI_bm)
1396:/usr/lib/avr/include/avr/power.h **** #define power_twif_enable()     (PR_PRPF &= (uint8_t)~(PR_TWI_bm))
1397:/usr/lib/avr/include/avr/power.h **** #define power_twif_disable()    (PR_PRPF |= (uint8_t)PR_TWI_bm)
1398:/usr/lib/avr/include/avr/power.h **** 
1399:/usr/lib/avr/include/avr/power.h **** #define power_usartc0_enable()  (PR_PRPC &= (uint8_t)~(PR_USART0_bm))
1400:/usr/lib/avr/include/avr/power.h **** #define power_usartc0_disable() (PR_PRPC |= (uint8_t)PR_USART0_bm)
1401:/usr/lib/avr/include/avr/power.h **** #define power_usartd0_enable()  (PR_PRPD &= (uint8_t)~(PR_USART0_bm))
1402:/usr/lib/avr/include/avr/power.h **** #define power_usartd0_disable() (PR_PRPD |= (uint8_t)PR_USART0_bm)
1403:/usr/lib/avr/include/avr/power.h **** #define power_usarte0_enable()  (PR_PRPE &= (uint8_t)~(PR_USART0_bm))
1404:/usr/lib/avr/include/avr/power.h **** #define power_usarte0_disable() (PR_PRPE |= (uint8_t)PR_USART0_bm)
1405:/usr/lib/avr/include/avr/power.h **** #define power_usartf0_enable()  (PR_PRPF &= (uint8_t)~(PR_USART0_bm))
1406:/usr/lib/avr/include/avr/power.h **** #define power_usartf0_disable() (PR_PRPF |= (uint8_t)PR_USART0_bm)
1407:/usr/lib/avr/include/avr/power.h **** 
1408:/usr/lib/avr/include/avr/power.h **** #define power_spic_enable()     (PR_PRPC &= (uint8_t)~(PR_SPI_bm))
1409:/usr/lib/avr/include/avr/power.h **** #define power_spic_disable()    (PR_PRPC |= (uint8_t)PR_SPI_bm)
1410:/usr/lib/avr/include/avr/power.h **** #define power_spid_enable()     (PR_PRPD &= (uint8_t)~(PR_SPI_bm))
1411:/usr/lib/avr/include/avr/power.h **** #define power_spid_disable()    (PR_PRPD |= (uint8_t)PR_SPI_bm)
1412:/usr/lib/avr/include/avr/power.h **** #define power_spie_enable()     (PR_PRPE &= (uint8_t)~(PR_SPI_bm))
1413:/usr/lib/avr/include/avr/power.h **** #define power_spie_disable()    (PR_PRPE |= (uint8_t)PR_SPI_bm)
1414:/usr/lib/avr/include/avr/power.h **** #define power_spif_enable()     (PR_PRPF &= (uint8_t)~(PR_SPI_bm))
1415:/usr/lib/avr/include/avr/power.h **** #define power_spif_disable()    (PR_PRPF |= (uint8_t)PR_SPI_bm)
1416:/usr/lib/avr/include/avr/power.h **** 
1417:/usr/lib/avr/include/avr/power.h **** #define power_hiresc_enable()   (PR_PRPC &= (uint8_t)~(PR_HIRES_bm))
1418:/usr/lib/avr/include/avr/power.h **** #define power_hiresc_disable()  (PR_PRPC |= (uint8_t)PR_HIRES_bm)
1419:/usr/lib/avr/include/avr/power.h **** #define power_hiresd_enable()   (PR_PRPD &= (uint8_t)~(PR_HIRES_bm))
1420:/usr/lib/avr/include/avr/power.h **** #define power_hiresd_disable()  (PR_PRPD |= (uint8_t)PR_HIRES_bm)
1421:/usr/lib/avr/include/avr/power.h **** #define power_hirese_enable()   (PR_PRPE &= (uint8_t)~(PR_HIRES_bm))
1422:/usr/lib/avr/include/avr/power.h **** #define power_hirese_disable()  (PR_PRPE |= (uint8_t)PR_HIRES_bm)
1423:/usr/lib/avr/include/avr/power.h **** #define power_hiresf_enable()   (PR_PRPF &= (uint8_t)~(PR_HIRES_bm))
1424:/usr/lib/avr/include/avr/power.h **** #define power_hiresf_disable()  (PR_PRPF |= (uint8_t)PR_HIRES_bm)
1425:/usr/lib/avr/include/avr/power.h **** 
1426:/usr/lib/avr/include/avr/power.h **** #define power_tc1c_enable()     (PR_PRPC &= (uint8_t)~(PR_TC1_bm))
1427:/usr/lib/avr/include/avr/power.h **** #define power_tc1c_disable()    (PR_PRPC |= (uint8_t)PR_TC1_bm)
1428:/usr/lib/avr/include/avr/power.h **** #define power_tc1d_enable()     (PR_PRPD &= (uint8_t)~(PR_TC1_bm))
1429:/usr/lib/avr/include/avr/power.h **** #define power_tc1d_disable()    (PR_PRPD |= (uint8_t)PR_TC1_bm)
1430:/usr/lib/avr/include/avr/power.h **** #define power_tc1e_enable()     (PR_PRPE &= (uint8_t)~(PR_TC1_bm))
1431:/usr/lib/avr/include/avr/power.h **** #define power_tc1e_disable()    (PR_PRPE |= (uint8_t)PR_TC1_bm)
1432:/usr/lib/avr/include/avr/power.h **** #define power_tc1f_enable()     (PR_PRPF &= (uint8_t)~(PR_TC1_bm))
1433:/usr/lib/avr/include/avr/power.h **** #define power_tc1f_disable()    (PR_PRPF |= (uint8_t)PR_TC1_bm)
1434:/usr/lib/avr/include/avr/power.h **** 
1435:/usr/lib/avr/include/avr/power.h **** #define power_tc0c_enable()     (PR_PRPC &= (uint8_t)~(PR_TC0_bm))
1436:/usr/lib/avr/include/avr/power.h **** #define power_tc0c_disable()    (PR_PRPC |= (uint8_t)PR_TC0_bm)
1437:/usr/lib/avr/include/avr/power.h **** #define power_tc0d_enable()     (PR_PRPD &= (uint8_t)~(PR_TC0_bm))
1438:/usr/lib/avr/include/avr/power.h **** #define power_tc0d_disable()    (PR_PRPD |= (uint8_t)PR_TC0_bm)
1439:/usr/lib/avr/include/avr/power.h **** #define power_tc0e_enable()     (PR_PRPE &= (uint8_t)~(PR_TC0_bm))
1440:/usr/lib/avr/include/avr/power.h **** #define power_tc0e_disable()    (PR_PRPE |= (uint8_t)PR_TC0_bm)
1441:/usr/lib/avr/include/avr/power.h **** #define power_tc0f_enable()     (PR_PRPF &= (uint8_t)~(PR_TC0_bm))
1442:/usr/lib/avr/include/avr/power.h **** #define power_tc0f_disable()    (PR_PRPF |= (uint8_t)PR_TC0_bm)
1443:/usr/lib/avr/include/avr/power.h **** 
1444:/usr/lib/avr/include/avr/power.h **** #endif
1445:/usr/lib/avr/include/avr/power.h **** 
1446:/usr/lib/avr/include/avr/power.h **** #if defined(__AVR_ATxmega64D3__) \
1447:/usr/lib/avr/include/avr/power.h **** || defined(__AVR_ATxmega128D3__) \
1448:/usr/lib/avr/include/avr/power.h **** || defined(__AVR_ATxmega192D3__) \
1449:/usr/lib/avr/include/avr/power.h **** || defined(__AVR_ATxmega256D3__) 
1450:/usr/lib/avr/include/avr/power.h **** 
1451:/usr/lib/avr/include/avr/power.h **** #define power_rtc_enable()      (PR_PRGEN &= (uint8_t)~(PR_RTC_bm))
1452:/usr/lib/avr/include/avr/power.h **** #define power_rtc_disable()     (PR_PRGEN |= (uint8_t)PR_RTC_bm)
1453:/usr/lib/avr/include/avr/power.h **** 
1454:/usr/lib/avr/include/avr/power.h **** #define power_evsys_enable()    (PR_PRGEN &= (uint8_t)~(PR_EVSYS_bm))
1455:/usr/lib/avr/include/avr/power.h **** #define power_evsys_disable()   (PR_PRGEN |= (uint8_t)PR_EVSYS_bm)
1456:/usr/lib/avr/include/avr/power.h **** 
1457:/usr/lib/avr/include/avr/power.h **** #define power_adca_enable()     (PR_PRPA &= (uint8_t)~(PR_ADC_bm))
1458:/usr/lib/avr/include/avr/power.h **** #define power_adca_disable()    (PR_PRPA |= (uint8_t)PR_ADC_bm)
1459:/usr/lib/avr/include/avr/power.h **** 
1460:/usr/lib/avr/include/avr/power.h **** #define power_aca_enable()      (PR_PRPA &= (uint8_t)~(PR_AC_bm))
1461:/usr/lib/avr/include/avr/power.h **** #define power_aca_disable()     (PR_PRPA |= (uint8_t)PR_AC_bm)
1462:/usr/lib/avr/include/avr/power.h **** 
1463:/usr/lib/avr/include/avr/power.h **** #define power_twic_enable()     (PR_PRPC &= (uint8_t)~(PR_TWI_bm))
1464:/usr/lib/avr/include/avr/power.h **** #define power_twic_disable()    (PR_PRPC |= (uint8_t)PR_TWI_bm)
1465:/usr/lib/avr/include/avr/power.h **** #define power_twie_enable()     (PR_PRPE &= (uint8_t)~(PR_TWI_bm))
1466:/usr/lib/avr/include/avr/power.h **** #define power_twie_disable()    (PR_PRPE |= (uint8_t)PR_TWI_bm)
1467:/usr/lib/avr/include/avr/power.h **** 
1468:/usr/lib/avr/include/avr/power.h **** #define power_usartc0_enable()  (PR_PRPC &= (uint8_t)~(PR_USART0_bm))
1469:/usr/lib/avr/include/avr/power.h **** #define power_usartc0_disable() (PR_PRPC |= (uint8_t)PR_USART0_bm)
1470:/usr/lib/avr/include/avr/power.h **** #define power_usartd0_enable()  (PR_PRPD &= (uint8_t)~(PR_USART0_bm))
1471:/usr/lib/avr/include/avr/power.h **** #define power_usartd0_disable() (PR_PRPD |= (uint8_t)PR_USART0_bm)
1472:/usr/lib/avr/include/avr/power.h **** #define power_usarte0_enable()  (PR_PRPE &= (uint8_t)~(PR_USART0_bm))
1473:/usr/lib/avr/include/avr/power.h **** #define power_usarte0_disable() (PR_PRPE |= (uint8_t)PR_USART0_bm)
1474:/usr/lib/avr/include/avr/power.h **** #define power_usartf0_enable()  (PR_PRPF &= (uint8_t)~(PR_USART0_bm))
1475:/usr/lib/avr/include/avr/power.h **** #define power_usartf0_disable() (PR_PRPF |= (uint8_t)PR_USART0_bm)
1476:/usr/lib/avr/include/avr/power.h **** 
1477:/usr/lib/avr/include/avr/power.h **** #define power_spic_enable()     (PR_PRPC &= (uint8_t)~(PR_SPI_bm))
1478:/usr/lib/avr/include/avr/power.h **** #define power_spic_disable()    (PR_PRPC |= (uint8_t)PR_SPI_bm)
1479:/usr/lib/avr/include/avr/power.h **** #define power_spid_enable()     (PR_PRPD &= (uint8_t)~(PR_SPI_bm))
1480:/usr/lib/avr/include/avr/power.h **** #define power_spid_disable()    (PR_PRPD |= (uint8_t)PR_SPI_bm)
1481:/usr/lib/avr/include/avr/power.h **** 
1482:/usr/lib/avr/include/avr/power.h **** #define power_hiresc_enable()   (PR_PRPC &= (uint8_t)~(PR_HIRES_bm))
1483:/usr/lib/avr/include/avr/power.h **** #define power_hiresc_disable()  (PR_PRPC |= (uint8_t)PR_HIRES_bm)
1484:/usr/lib/avr/include/avr/power.h **** 
1485:/usr/lib/avr/include/avr/power.h **** #define power_tc1c_enable()     (PR_PRPC &= (uint8_t)~(PR_TC1_bm))
1486:/usr/lib/avr/include/avr/power.h **** #define power_tc1c_disable()    (PR_PRPC |= (uint8_t)PR_TC1_bm)
1487:/usr/lib/avr/include/avr/power.h **** 
1488:/usr/lib/avr/include/avr/power.h **** #define power_tc0c_enable()     (PR_PRPC &= (uint8_t)~(PR_TC0_bm))
1489:/usr/lib/avr/include/avr/power.h **** #define power_tc0c_disable()    (PR_PRPC |= (uint8_t)PR_TC0_bm)
1490:/usr/lib/avr/include/avr/power.h **** #define power_tc0d_enable()     (PR_PRPD &= (uint8_t)~(PR_TC0_bm))
1491:/usr/lib/avr/include/avr/power.h **** #define power_tc0d_disable()    (PR_PRPD |= (uint8_t)PR_TC0_bm)
1492:/usr/lib/avr/include/avr/power.h **** #define power_tc0e_enable()     (PR_PRPE &= (uint8_t)~(PR_TC0_bm))
1493:/usr/lib/avr/include/avr/power.h **** #define power_tc0e_disable()    (PR_PRPE |= (uint8_t)PR_TC0_bm)
1494:/usr/lib/avr/include/avr/power.h **** #define power_tc0f_enable()     (PR_PRPF &= (uint8_t)~(PR_TC0_bm))
1495:/usr/lib/avr/include/avr/power.h **** #define power_tc0f_disable()    (PR_PRPF |= (uint8_t)PR_TC0_bm)
1496:/usr/lib/avr/include/avr/power.h **** 
1497:/usr/lib/avr/include/avr/power.h **** #define power_all_enable() \
1498:/usr/lib/avr/include/avr/power.h **** do { \
1499:/usr/lib/avr/include/avr/power.h ****     PR_PRGEN &= (uint8_t)~(PR_RTC_bm|PR_EVSYS_bm); \
1500:/usr/lib/avr/include/avr/power.h ****     PR_PRPA &= (uint8_t)~(PR_ADC_bm|PR_AC_bm); \
1501:/usr/lib/avr/include/avr/power.h ****     PR_PRPC &= (uint8_t)~(PR_TWI_bm|PR_USART0_bm|PR_SPI_bm|PR_HIRES_bm|PR_TC1_bm|PR_TC0_bm); \
1502:/usr/lib/avr/include/avr/power.h ****     PR_PRPD &= (uint8_t)~(PR_USART0_bm|PR_SPI_bm|PR_TC0_bm); \
1503:/usr/lib/avr/include/avr/power.h ****     PR_PRPE &= (uint8_t)~(PR_TWI_bm|PR_USART0_bm|PR_TC0_bm); \
1504:/usr/lib/avr/include/avr/power.h ****     PR_PRPF &= (uint8_t)~(PR_USART0_bm|PR_TC0_bm); \
1505:/usr/lib/avr/include/avr/power.h **** } while(0)
1506:/usr/lib/avr/include/avr/power.h **** 
1507:/usr/lib/avr/include/avr/power.h **** 
1508:/usr/lib/avr/include/avr/power.h **** #define power_all_disable() \
1509:/usr/lib/avr/include/avr/power.h **** do { \
1510:/usr/lib/avr/include/avr/power.h ****     PR_PRGEN|= (uint8_t)(PR_RTC_bm|PR_EVSYS_bm); \
1511:/usr/lib/avr/include/avr/power.h ****     PR_PRPA |= (uint8_t)(PR_ADC_bm|PR_AC_bm); \
1512:/usr/lib/avr/include/avr/power.h ****     PR_PRPC |= (uint8_t)(PR_TWI_bm|PR_USART0_bm|PR_SPI_bm|PR_HIRES_bm|PR_TC1_bm|PR_TC0_bm); \
1513:/usr/lib/avr/include/avr/power.h ****     PR_PRPD |= (uint8_t)(PR_USART0_bm|PR_SPI_bm|PR_TC0_bm); \
1514:/usr/lib/avr/include/avr/power.h ****     PR_PRPE |= (uint8_t)(PR_TWI_bm|PR_USART0_bm|PR_TC0_bm); \
1515:/usr/lib/avr/include/avr/power.h ****     PR_PRPF |= (uint8_t)(PR_USART0_bm|PR_TC0_bm); \
1516:/usr/lib/avr/include/avr/power.h **** } while(0)
1517:/usr/lib/avr/include/avr/power.h **** 
1518:/usr/lib/avr/include/avr/power.h **** #endif
1519:/usr/lib/avr/include/avr/power.h **** 
1520:/usr/lib/avr/include/avr/power.h **** #if defined(__AVR_ATxmega64D4__) \
1521:/usr/lib/avr/include/avr/power.h **** || defined(__AVR_ATxmega128D4__) 
1522:/usr/lib/avr/include/avr/power.h **** 
1523:/usr/lib/avr/include/avr/power.h **** #define power_rtc_enable()  (PR_PRGEN &= (uint8_t)~(PR_RTC_bm))
1524:/usr/lib/avr/include/avr/power.h **** #define power_rtc_disable() (PR_PRGEN |= (uint8_t)PR_RTC_bm)
1525:/usr/lib/avr/include/avr/power.h **** 
1526:/usr/lib/avr/include/avr/power.h **** #define power_evsys_enable()    (PR_PRGEN &= (uint8_t)~(PR_EVSYS_bm))
1527:/usr/lib/avr/include/avr/power.h **** #define power_evsys_disable()   (PR_PRGEN |= (uint8_t)PR_EVSYS_bm)
1528:/usr/lib/avr/include/avr/power.h **** 
1529:/usr/lib/avr/include/avr/power.h **** #define power_adca_enable()     (PR_PRPA &= (uint8_t)~(PR_ADC_bm))
1530:/usr/lib/avr/include/avr/power.h **** #define power_adca_disable()    (PR_PRPA |= (uint8_t)PR_ADC_bm)
1531:/usr/lib/avr/include/avr/power.h **** 
1532:/usr/lib/avr/include/avr/power.h **** #define power_aca_enable()      (PR_PRPA &= (uint8_t)~(PR_AC_bm))
1533:/usr/lib/avr/include/avr/power.h **** #define power_aca_disable()     (PR_PRPA |= (uint8_t)PR_AC_bm)
1534:/usr/lib/avr/include/avr/power.h **** 
1535:/usr/lib/avr/include/avr/power.h **** #define power_twic_enable()     (PR_PRPC &= (uint8_t)~(PR_TWI_bm))
1536:/usr/lib/avr/include/avr/power.h **** #define power_twic_disable()    (PR_PRPC |= (uint8_t)PR_TWI_bm)
1537:/usr/lib/avr/include/avr/power.h **** #define power_twie_enable()     (PR_PRPE &= (uint8_t)~(PR_TWI_bm))
1538:/usr/lib/avr/include/avr/power.h **** #define power_twie_disable()    (PR_PRPE |= (uint8_t)PR_TWI_bm)
1539:/usr/lib/avr/include/avr/power.h **** 
1540:/usr/lib/avr/include/avr/power.h **** #define power_usartc0_enable()  (PR_PRPC &= (uint8_t)~(PR_USART0_bm))
1541:/usr/lib/avr/include/avr/power.h **** #define power_usartc0_disable() (PR_PRPC |= (uint8_t)PR_USART0_bm)
1542:/usr/lib/avr/include/avr/power.h **** #define power_usartd0_enable()  (PR_PRPD &= (uint8_t)~(PR_USART0_bm))
1543:/usr/lib/avr/include/avr/power.h **** #define power_usartd0_disable() (PR_PRPD |= (uint8_t)PR_USART0_bm)
1544:/usr/lib/avr/include/avr/power.h **** #define power_usarte0_enable()  (PR_PRPE &= (uint8_t)~(PR_USART0_bm))
1545:/usr/lib/avr/include/avr/power.h **** #define power_usarte0_disable() (PR_PRPE |= (uint8_t)PR_USART0_bm)
1546:/usr/lib/avr/include/avr/power.h **** #define power_usartf0_enable()  (PR_PRPF &= (uint8_t)~(PR_USART0_bm))
1547:/usr/lib/avr/include/avr/power.h **** #define power_usartf0_disable() (PR_PRPF |= (uint8_t)PR_USART0_bm)
1548:/usr/lib/avr/include/avr/power.h **** 
1549:/usr/lib/avr/include/avr/power.h **** #define power_spic_enable()     (PR_PRPC &= (uint8_t)~(PR_SPI_bm))
1550:/usr/lib/avr/include/avr/power.h **** #define power_spic_disable()    (PR_PRPC |= (uint8_t)PR_SPI_bm)
1551:/usr/lib/avr/include/avr/power.h **** #define power_spid_enable()     (PR_PRPD &= (uint8_t)~(PR_SPI_bm))
1552:/usr/lib/avr/include/avr/power.h **** #define power_spid_disable()    (PR_PRPD |= (uint8_t)PR_SPI_bm)
1553:/usr/lib/avr/include/avr/power.h **** 
1554:/usr/lib/avr/include/avr/power.h **** #define power_hiresc_enable()   (PR_PRPC &= (uint8_t)~(PR_HIRES_bm))
1555:/usr/lib/avr/include/avr/power.h **** #define power_hiresc_disable()  (PR_PRPC |= (uint8_t)PR_HIRES_bm)
1556:/usr/lib/avr/include/avr/power.h **** 
1557:/usr/lib/avr/include/avr/power.h **** #define power_tc1c_enable()     (PR_PRPC &= (uint8_t)~(PR_TC1_bm))
1558:/usr/lib/avr/include/avr/power.h **** #define power_tc1c_disable()    (PR_PRPC |= (uint8_t)PR_TC1_bm)
1559:/usr/lib/avr/include/avr/power.h **** 
1560:/usr/lib/avr/include/avr/power.h **** #define power_tc0c_enable()     (PR_PRPC &= (uint8_t)~(PR_TC0_bm))
1561:/usr/lib/avr/include/avr/power.h **** #define power_tc0c_disable()    (PR_PRPC |= (uint8_t)PR_TC0_bm)
1562:/usr/lib/avr/include/avr/power.h **** #define power_tc0d_enable()     (PR_PRPD &= (uint8_t)~(PR_TC0_bm))
1563:/usr/lib/avr/include/avr/power.h **** #define power_tc0d_disable()    (PR_PRPD |= (uint8_t)PR_TC0_bm)
1564:/usr/lib/avr/include/avr/power.h **** #define power_tc0e_enable()     (PR_PRPE &= (uint8_t)~(PR_TC0_bm))
1565:/usr/lib/avr/include/avr/power.h **** #define power_tc0e_disable()    (PR_PRPE |= (uint8_t)PR_TC0_bm)
1566:/usr/lib/avr/include/avr/power.h **** #define power_tc0f_enable()     (PR_PRPF &= (uint8_t)~(PR_TC0_bm))
1567:/usr/lib/avr/include/avr/power.h **** #define power_tc0f_disable()    (PR_PRPF |= (uint8_t)PR_TC0_bm)
1568:/usr/lib/avr/include/avr/power.h **** 
1569:/usr/lib/avr/include/avr/power.h **** #define power_all_enable() \
1570:/usr/lib/avr/include/avr/power.h **** do { \
1571:/usr/lib/avr/include/avr/power.h ****     PR_PRGEN &= (uint8_t)~(PR_RTC_bm|PR_EVSYS_bm); \
1572:/usr/lib/avr/include/avr/power.h ****     PR_PRPA &= (uint8_t)~(PR_ADC_bm|PR_AC_bm); \
1573:/usr/lib/avr/include/avr/power.h ****     PR_PRPC &= (uint8_t)~(PR_TWI_bm|PR_USART0_bm|PR_SPI_bm|PR_HIRES_bm|PR_TC1_bm|PR_TC0_bm); \
1574:/usr/lib/avr/include/avr/power.h ****     PR_PRPD &= (uint8_t)~(PR_USART0_bm|PR_SPI_bm|PR_TC0_bm); \
1575:/usr/lib/avr/include/avr/power.h ****     PR_PRPE &= (uint8_t)~(PR_TWI_bm|PR_USART0_bm|PR_TC0_bm); \
1576:/usr/lib/avr/include/avr/power.h ****     PR_PRPF &= (uint8_t)~(PR_USART0_bm|PR_TC0_bm); \
1577:/usr/lib/avr/include/avr/power.h ****     } while(0)
1578:/usr/lib/avr/include/avr/power.h **** 
1579:/usr/lib/avr/include/avr/power.h **** #define power_all_disable() \
1580:/usr/lib/avr/include/avr/power.h **** do { \
1581:/usr/lib/avr/include/avr/power.h ****     PR_PRGEN |= (uint8_t)(PR_RTC_bm|PR_EVSYS_bm); \
1582:/usr/lib/avr/include/avr/power.h ****     PR_PRPA |= (uint8_t)(PR_ADC_bm|PR_AC_bm); \
1583:/usr/lib/avr/include/avr/power.h ****     PR_PRPC |= (uint8_t)(PR_TWI_bm|PR_USART0_bm|PR_SPI_bm|PR_HIRES_bm|PR_TC1_bm|PR_TC0_bm); \
1584:/usr/lib/avr/include/avr/power.h ****     PR_PRPD |= (uint8_t)(PR_USART0_bm|PR_SPI_bm|PR_TC0_bm); \
1585:/usr/lib/avr/include/avr/power.h ****     PR_PRPE |= (uint8_t)(PR_TWI_bm|PR_USART0_bm|PR_TC0_bm); \
1586:/usr/lib/avr/include/avr/power.h ****     PR_PRPF |= (uint8_t)(PR_USART0_bm|PR_TC0_bm); \
1587:/usr/lib/avr/include/avr/power.h ****     } while(0)
1588:/usr/lib/avr/include/avr/power.h **** 
1589:/usr/lib/avr/include/avr/power.h **** #endif
1590:/usr/lib/avr/include/avr/power.h **** 
1591:/usr/lib/avr/include/avr/power.h **** #if defined(__AVR_ATxmega16D4__) \
1592:/usr/lib/avr/include/avr/power.h **** || defined(__AVR_ATxmega32D3__) \
1593:/usr/lib/avr/include/avr/power.h **** || defined(__AVR_ATxmega32D4__) \
1594:/usr/lib/avr/include/avr/power.h **** 
1595:/usr/lib/avr/include/avr/power.h **** #define power_all_enable() \
1596:/usr/lib/avr/include/avr/power.h **** do { \
1597:/usr/lib/avr/include/avr/power.h ****     PR_PRGEN &= (uint8_t)~(PR_RTC_bm|PR_EVSYS_bm); \
1598:/usr/lib/avr/include/avr/power.h ****     PR_PRPA &= (uint8_t)~(PR_ADC_bm|PR_AC_bm); \
1599:/usr/lib/avr/include/avr/power.h ****     PR_PRPC &= (uint8_t)~(PR_TWI_bm|PR_USART0_bm|PR_SPI_bm|PR_HIRES_bm|PR_TC1_bm|PR_TC0_bm); \
1600:/usr/lib/avr/include/avr/power.h ****     PR_PRPD &= (uint8_t)~(PR_TWI_bm|PR_USART0_bm|PR_SPI_bm|PR_HIRES_bm|PR_TC1_bm|PR_TC0_bm); \
1601:/usr/lib/avr/include/avr/power.h ****     PR_PRPE &= (uint8_t)~(PR_TWI_bm|PR_USART0_bm|PR_SPI_bm|PR_HIRES_bm|PR_TC1_bm|PR_TC0_bm); \
1602:/usr/lib/avr/include/avr/power.h ****     PR_PRPF &= (uint8_t)~(PR_TWI_bm|PR_USART0_bm|PR_SPI_bm|PR_HIRES_bm|PR_TC1_bm|PR_TC0_bm); \
1603:/usr/lib/avr/include/avr/power.h **** } while(0)
1604:/usr/lib/avr/include/avr/power.h **** 
1605:/usr/lib/avr/include/avr/power.h **** 
1606:/usr/lib/avr/include/avr/power.h **** #define power_all_disable() \
1607:/usr/lib/avr/include/avr/power.h **** do { \
1608:/usr/lib/avr/include/avr/power.h ****     PR_PRGEN|= (uint8_t)(PR_RTC_bm|PR_EVSYS_bm); \
1609:/usr/lib/avr/include/avr/power.h ****     PR_PRPA |= (uint8_t)(PR_ADC_bm|PR_AC_bm); \
1610:/usr/lib/avr/include/avr/power.h ****     PR_PRPC |= (uint8_t)(PR_TWI_bm|PR_USART0_bm|PR_SPI_bm|PR_HIRES_bm|PR_TC1_bm|PR_TC0_bm); \
1611:/usr/lib/avr/include/avr/power.h ****     PR_PRPD |= (uint8_t)(PR_TWI_bm|PR_USART0_bm|PR_SPI_bm|PR_HIRES_bm|PR_TC1_bm|PR_TC0_bm); \
1612:/usr/lib/avr/include/avr/power.h ****     PR_PRPE |= (uint8_t)(PR_TWI_bm|PR_USART0_bm|PR_SPI_bm|PR_HIRES_bm|PR_TC1_bm|PR_TC0_bm); \
1613:/usr/lib/avr/include/avr/power.h ****     PR_PRPF |= (uint8_t)(PR_TWI_bm|PR_USART0_bm|PR_SPI_bm|PR_HIRES_bm|PR_TC1_bm|PR_TC0_bm); \
1614:/usr/lib/avr/include/avr/power.h **** } while(0)
1615:/usr/lib/avr/include/avr/power.h **** 
1616:/usr/lib/avr/include/avr/power.h **** 
1617:/usr/lib/avr/include/avr/power.h **** #elif defined(__AVR_ATxmega32E5__) \
1618:/usr/lib/avr/include/avr/power.h **** || defined(__AVR_ATxmega16E5__) \
1619:/usr/lib/avr/include/avr/power.h **** || defined(__AVR_ATxmega8E5__) 
1620:/usr/lib/avr/include/avr/power.h **** 
1621:/usr/lib/avr/include/avr/power.h **** #define power_xcl_enable()      (PR_PRGEN &= (uint8_t)~(PR_XCL_bm))
1622:/usr/lib/avr/include/avr/power.h **** #define power_xcl_disable()     (PR_PRGEN |= (uint8_t)PR_XCL_bm)
1623:/usr/lib/avr/include/avr/power.h **** 
1624:/usr/lib/avr/include/avr/power.h **** #define power_rtc_enable()      (PR_PRGEN &= (uint8_t)~(PR_RTC_bm)) 
1625:/usr/lib/avr/include/avr/power.h **** #define power_rtc_disable()     (PR_PRGEN |= (uint8_t)PR_RTC_bm)
1626:/usr/lib/avr/include/avr/power.h **** 
1627:/usr/lib/avr/include/avr/power.h **** #define power_evsys_enable()    (PR_PRGEN &= (uint8_t)~(PR_EVSYS_bm)) 
1628:/usr/lib/avr/include/avr/power.h **** #define power_evsys_disable()   (PR_PRGEN |= (uint8_t)PR_EVSYS_bm)
1629:/usr/lib/avr/include/avr/power.h **** 
1630:/usr/lib/avr/include/avr/power.h **** #define power_edma_enable()     (PR_PRGEN &= (uint8_t)~(PR_EDMA_bm))
1631:/usr/lib/avr/include/avr/power.h **** #define power_edma_disable()    (PR_PRGEN |= (uint8_t)PR_EDMA_bm)
1632:/usr/lib/avr/include/avr/power.h **** 
1633:/usr/lib/avr/include/avr/power.h **** #define power_daca_enable()      (PR_PRPA  &= (uint8_t)~(PR_DAC_bm))
1634:/usr/lib/avr/include/avr/power.h **** #define power_daca_disable()     (PR_PRPA  |= (uint8_t)PR_DAC_bm)
1635:/usr/lib/avr/include/avr/power.h **** 
1636:/usr/lib/avr/include/avr/power.h **** #define power_adca_enable()      (PR_PRPA  &= (uint8_t)~(PR_ADC_bm))
1637:/usr/lib/avr/include/avr/power.h **** #define power_adca_disable()     (PR_PRPA  |= (uint8_t)PR_ADC_bm)
1638:/usr/lib/avr/include/avr/power.h **** 
1639:/usr/lib/avr/include/avr/power.h **** #define power_aca_enable()       (PR_PRPA  &= (uint8_t)~(PR_AC_bm))
1640:/usr/lib/avr/include/avr/power.h **** #define power_aca_disable()      (PR_PRPA  |= (uint8_t)PR_AC_bm)
1641:/usr/lib/avr/include/avr/power.h **** 
1642:/usr/lib/avr/include/avr/power.h **** #define power_twic_enable()      (PR_PRPC  &= (uint8_t)~(PR_TWI_bm))
1643:/usr/lib/avr/include/avr/power.h **** #define power_twic_disable()     (PR_PRPC  |= (uint8_t)PR_TWI_bm)
1644:/usr/lib/avr/include/avr/power.h **** 
1645:/usr/lib/avr/include/avr/power.h **** #define power_usartc0_enable()   (PR_PRPC  &= (uint8_t)~(PR_USART0_bm))
1646:/usr/lib/avr/include/avr/power.h **** #define power_usartc0_disable()  (PR_PRPC  |= (uint8_t)PR_USART0_bm)
1647:/usr/lib/avr/include/avr/power.h **** 
1648:/usr/lib/avr/include/avr/power.h **** #define power_spic_enable()      (PR_PRPC  &= (uint8_t)~(PR_SPI_bm))
1649:/usr/lib/avr/include/avr/power.h **** #define power_spic_disable()     (PR_PRPC  |= (uint8_t)PR_SPI_bm)
1650:/usr/lib/avr/include/avr/power.h **** 
1651:/usr/lib/avr/include/avr/power.h **** #define power_hiresc_enable()    (PR_PRPC  &= (uint8_t)~(PR_HIRES_bm))
1652:/usr/lib/avr/include/avr/power.h **** #define power_hiresc_disable()   (PR_PRPC  |= (uint8_t)PR_HIRES_bm)
1653:/usr/lib/avr/include/avr/power.h **** 
1654:/usr/lib/avr/include/avr/power.h **** #define power_tc5c_enable()      (PR_PRPC  &= (uint8_t)~(PR_TC5_bm))
1655:/usr/lib/avr/include/avr/power.h **** #define power_tc5c_disable()     (PR_PRPC  |= (uint8_t)PR_TC5_bm)
1656:/usr/lib/avr/include/avr/power.h **** 
1657:/usr/lib/avr/include/avr/power.h **** #define power_tc4c_enable()      (PR_PRPC  &= (uint8_t)~(PR_TC4_bm))
1658:/usr/lib/avr/include/avr/power.h **** #define power_tc4c_disable()     (PR_PRPC  |= (uint8_t)PR_TC4_bm)
1659:/usr/lib/avr/include/avr/power.h **** 
1660:/usr/lib/avr/include/avr/power.h **** #define power_usartd0_enable()   (PR_PRPD  &= (uint8_t)~(PR_USART0_bm))  
1661:/usr/lib/avr/include/avr/power.h **** #define power_usartd0_disable()  (PR_PRPD  |= (uint8_t)PR_USART0_bm)
1662:/usr/lib/avr/include/avr/power.h **** 
1663:/usr/lib/avr/include/avr/power.h **** #define power_tc5d_enable()      (PR_PRPC  &= (uint8_t)~(PR_TC5_bm)) 
1664:/usr/lib/avr/include/avr/power.h **** #define power_tc5d_disable()     (PR_PRPC  |= (uint8_t)PR_TC5_bm) 
1665:/usr/lib/avr/include/avr/power.h **** 
1666:/usr/lib/avr/include/avr/power.h **** #define power_all_enable() \
1667:/usr/lib/avr/include/avr/power.h **** do { \
1668:/usr/lib/avr/include/avr/power.h ****     PR_PRGEN &= (uint8_t)~(PR_RTC_bm|PR_EVSYS_bm|PR_XCL_bm|PR_EDMA_bm); \
1669:/usr/lib/avr/include/avr/power.h ****     PR_PRPA  &= (uint8_t)~(PR_ADC_bm|PR_AC_bm|PR_DAC_bm); \
1670:/usr/lib/avr/include/avr/power.h ****     PR_PRPC  &= (uint8_t)~(PR_TWI_bm|PR_USART0_bm|PR_SPI_bm|PR_HIRES_bm|PR_TC5_bm|PR_TC4_bm); \
1671:/usr/lib/avr/include/avr/power.h ****     PR_PRPD  &= (uint8_t)~(PR_USART0_bm|PR_TC5_bm); \
1672:/usr/lib/avr/include/avr/power.h **** } while(0)
1673:/usr/lib/avr/include/avr/power.h **** 
1674:/usr/lib/avr/include/avr/power.h **** 
1675:/usr/lib/avr/include/avr/power.h **** #define power_all_disable() \
1676:/usr/lib/avr/include/avr/power.h **** do { \
1677:/usr/lib/avr/include/avr/power.h ****     PR_PRGEN|= (uint8_t)(PR_XCL_bm|PR_RTC_bm|PR_EVSYS_bm|PR_EDMA_bm); \
1678:/usr/lib/avr/include/avr/power.h ****     PR_PRPA |= (uint8_t)(PR_ADC_bm|PR_AC_bm|PR_DAC_bm); \
1679:/usr/lib/avr/include/avr/power.h ****     PR_PRPC |= (uint8_t)(PR_TWI_bm|PR_USART0_bm|PR_SPI_bm|PR_HIRES_bm|PR_TC5_bm|PR_TC4_bm); \
1680:/usr/lib/avr/include/avr/power.h ****     PR_PRPD |= (uint8_t)(PR_USART0_bm|PR_TC5_bm); \
1681:/usr/lib/avr/include/avr/power.h **** } while(0)
1682:/usr/lib/avr/include/avr/power.h **** 
1683:/usr/lib/avr/include/avr/power.h **** 
1684:/usr/lib/avr/include/avr/power.h **** #elif defined (__AVR_ATxmega64B1__) \
1685:/usr/lib/avr/include/avr/power.h **** || defined (__AVR_ATxmega64B3__) \
1686:/usr/lib/avr/include/avr/power.h **** || defined (__AVR_ATxmega128B1__) \
1687:/usr/lib/avr/include/avr/power.h **** || defined (__AVR_ATxmega128B3__) 
1688:/usr/lib/avr/include/avr/power.h **** #define power_lcd_enable()  (PR_PRGEN &= (uint8_t)~(PR_LCD_bm))
1689:/usr/lib/avr/include/avr/power.h **** #define power_lcd_disable() (PR_PRGEN |= (uint8_t)PR_LCD_bm)
1690:/usr/lib/avr/include/avr/power.h **** 
1691:/usr/lib/avr/include/avr/power.h **** #define power_usb_enable()  (PR_PRGEN &= (uint8_t)~(PR_USB_bm))
1692:/usr/lib/avr/include/avr/power.h **** #define power_usb_disable() (PR_PRGEN |= (uint8_t)PR_USB_bm)
1693:/usr/lib/avr/include/avr/power.h **** 
1694:/usr/lib/avr/include/avr/power.h **** #define power_aes_enable()  (PR_PRGEN &= (uint8_t)~(PR_AES_bm))
1695:/usr/lib/avr/include/avr/power.h **** #define power_aes_disable() (PR_PRGEN |= (uint8_t)PR_AES_bm)
1696:/usr/lib/avr/include/avr/power.h **** 
1697:/usr/lib/avr/include/avr/power.h **** #define power_rtc_enable()  (PR_PRGEN &= (uint8_t)~(PR_RTC_bm))
1698:/usr/lib/avr/include/avr/power.h **** #define power_rtc_disable() (PR_PRGEN |= (uint8_t)PR_RTC_bm)
1699:/usr/lib/avr/include/avr/power.h **** 
1700:/usr/lib/avr/include/avr/power.h **** #define power_evsys_enable()    (PR_PRGEN &= (uint8_t)~(PR_EVSYS_bm))
1701:/usr/lib/avr/include/avr/power.h **** #define power_evsys_disable()   (PR_PRGEN |= (uint8_t)PR_EVSYS_bm)
1702:/usr/lib/avr/include/avr/power.h **** 
1703:/usr/lib/avr/include/avr/power.h **** #define power_dma_enable()    (PR_PRGEN &= (uint8_t)~(PR_DMA_bm))
1704:/usr/lib/avr/include/avr/power.h **** #define power_dma_disable()   (PR_PRGEN |= (uint8_t)PR_DMA_bm)
1705:/usr/lib/avr/include/avr/power.h **** 
1706:/usr/lib/avr/include/avr/power.h **** #define power_adca_enable()     (PR_PRPA &= (uint8_t)~(PR_ADC_bm))
1707:/usr/lib/avr/include/avr/power.h **** #define power_adca_disable()    (PR_PRPA |= (uint8_t)PR_ADC_bm)
1708:/usr/lib/avr/include/avr/power.h **** #define power_adcb_enable()     (PR_PRPB &= (uint8_t)~(PR_ADC_bm))
1709:/usr/lib/avr/include/avr/power.h **** #define power_adcb_disable()    (PR_PRPB |= (uint8_t)PR_ADC_bm)
1710:/usr/lib/avr/include/avr/power.h **** 
1711:/usr/lib/avr/include/avr/power.h **** #define power_aca_enable()      (PR_PRPA &= (uint8_t)~(PR_AC_bm))
1712:/usr/lib/avr/include/avr/power.h **** #define power_aca_disable()     (PR_PRPA |= (uint8_t)PR_AC_bm)
1713:/usr/lib/avr/include/avr/power.h **** #define power_acb_enable()      (PR_PRPB &= (uint8_t)~(PR_AC_bm))
1714:/usr/lib/avr/include/avr/power.h **** #define power_acb_disable()     (PR_PRPB |= (uint8_t)PR_AC_bm)
1715:/usr/lib/avr/include/avr/power.h **** 
1716:/usr/lib/avr/include/avr/power.h **** #define power_twic_enable()     (PR_PRPC &= (uint8_t)~(PR_TWI_bm))
1717:/usr/lib/avr/include/avr/power.h **** #define power_twic_disable()    (PR_PRPC |= (uint8_t)PR_TWI_bm)
1718:/usr/lib/avr/include/avr/power.h **** 
1719:/usr/lib/avr/include/avr/power.h **** #define power_usartc0_enable()  (PR_PRPC &= (uint8_t)~(PR_USART0_bm))
1720:/usr/lib/avr/include/avr/power.h **** #define power_usartc0_disable() (PR_PRPC |= (uint8_t)PR_USART0_bm)
1721:/usr/lib/avr/include/avr/power.h **** #define power_usarte0_enable()  (PR_PRPE &= (uint8_t)~(PR_USART0_bm))
1722:/usr/lib/avr/include/avr/power.h **** #define power_usarte0_disable() (PR_PRPE |= (uint8_t)PR_USART0_bm)
1723:/usr/lib/avr/include/avr/power.h **** 
1724:/usr/lib/avr/include/avr/power.h **** #define power_spic_enable()     (PR_PRPC &= (uint8_t)~(PR_SPI_bm))
1725:/usr/lib/avr/include/avr/power.h **** #define power_spic_disable()    (PR_PRPC |= (uint8_t)PR_SPI_bm)
1726:/usr/lib/avr/include/avr/power.h **** 
1727:/usr/lib/avr/include/avr/power.h **** #define power_hiresc_enable()     (PR_PRPC &= (uint8_t)~(PR_HIRES_bm))
1728:/usr/lib/avr/include/avr/power.h **** #define power_hiresc_disable()    (PR_PRPC |= (uint8_t)PR_HIRES_bm)
1729:/usr/lib/avr/include/avr/power.h **** 
1730:/usr/lib/avr/include/avr/power.h **** #define power_tc1c_enable()     (PR_PRPC &= (uint8_t)~(PR_TC1_bm))
1731:/usr/lib/avr/include/avr/power.h **** #define power_tc1c_disable()    (PR_PRPC |= (uint8_t)PR_TC1_bm)
1732:/usr/lib/avr/include/avr/power.h **** 
1733:/usr/lib/avr/include/avr/power.h **** #define power_tc0c_enable()  (PR_PRPC &= (uint8_t)~(PR_TC0_bm))
1734:/usr/lib/avr/include/avr/power.h **** #define power_tc0c_disable() (PR_PRPC |= (uint8_t)PR_TC0_bm)
1735:/usr/lib/avr/include/avr/power.h **** #define power_tc0e_enable()  (PR_PRPE &= (uint8_t)~(PR_TC0_bm))
1736:/usr/lib/avr/include/avr/power.h **** #define power_tc0e_disable() (PR_PRPE |= (uint8_t)PR_TC0_bm)
1737:/usr/lib/avr/include/avr/power.h **** 
1738:/usr/lib/avr/include/avr/power.h **** #define power_all_enable() \
1739:/usr/lib/avr/include/avr/power.h **** do { \
1740:/usr/lib/avr/include/avr/power.h ****     PR_PRGEN &= (uint8_t)~(PR_LCD_bm|PR_USB_bm|PR_AES_bm|PR_RTC_bm|PR_EVSYS_bm|PR_DMA_bm); \
1741:/usr/lib/avr/include/avr/power.h ****     PR_PRPA &= (uint8_t)~(PR_ADC_bm|PR_AC_bm); \
1742:/usr/lib/avr/include/avr/power.h ****     PR_PRPB &= (uint8_t)~(PR_ADC_bm|PR_AC_bm); \
1743:/usr/lib/avr/include/avr/power.h ****     PR_PRPC &= (uint8_t)~(PR_TWI_bm|PR_USART0_bm|PR_SPI_bm|PR_HIRES_bm|PR_TC1_bm|PR_TC0_bm); \
1744:/usr/lib/avr/include/avr/power.h ****     PR_PRPE &= (uint8_t)~(PR_USART0_bm|PR_TC0_bm); \
1745:/usr/lib/avr/include/avr/power.h ****     } while(0)
1746:/usr/lib/avr/include/avr/power.h **** 
1747:/usr/lib/avr/include/avr/power.h **** #define power_all_disable() \
1748:/usr/lib/avr/include/avr/power.h **** do { \
1749:/usr/lib/avr/include/avr/power.h ****     PR_PRGEN |= (uint8_t)(PR_LCD_bm|PR_USB_bm|PR_AES_bm|PR_RTC_bm|PR_EVSYS_bm|PR_DMA_bm); \
1750:/usr/lib/avr/include/avr/power.h ****     PR_PRPA |= (uint8_t)(PR_ADC_bm|PR_AC_bm); \
1751:/usr/lib/avr/include/avr/power.h ****     PR_PRPB |= (uint8_t)(PR_ADC_bm|PR_AC_bm); \
1752:/usr/lib/avr/include/avr/power.h ****     PR_PRPC |= (uint8_t)(PR_TWI_bm|PR_USART0_bm|PR_SPI_bm|PR_HIRES_bm|PR_TC1_bm|PR_TC0_bm); \
1753:/usr/lib/avr/include/avr/power.h ****     PR_PRPE |= (uint8_t)(PR_USART0_bm|PR_TC0_bm); \
1754:/usr/lib/avr/include/avr/power.h ****     } while(0)
1755:/usr/lib/avr/include/avr/power.h **** 
1756:/usr/lib/avr/include/avr/power.h **** #elif defined(__AVR_ATmega640__) \
1757:/usr/lib/avr/include/avr/power.h **** || defined(__AVR_ATmega1280__) \
1758:/usr/lib/avr/include/avr/power.h **** || defined(__AVR_ATmega1281__) \
1759:/usr/lib/avr/include/avr/power.h **** || defined(__AVR_ATmega2560__) \
1760:/usr/lib/avr/include/avr/power.h **** || defined(__AVR_ATmega2561__) 
1761:/usr/lib/avr/include/avr/power.h **** 
1762:/usr/lib/avr/include/avr/power.h **** #define power_adc_enable()      (PRR0 &= (uint8_t)~(1 << PRADC))
1763:/usr/lib/avr/include/avr/power.h **** #define power_adc_disable()     (PRR0 |= (uint8_t)(1 << PRADC))
1764:/usr/lib/avr/include/avr/power.h **** 
1765:/usr/lib/avr/include/avr/power.h **** #define power_spi_enable()      (PRR0 &= (uint8_t)~(1 << PRSPI))
1766:/usr/lib/avr/include/avr/power.h **** #define power_spi_disable()     (PRR0 |= (uint8_t)(1 << PRSPI))
1767:/usr/lib/avr/include/avr/power.h **** 
1768:/usr/lib/avr/include/avr/power.h **** #define power_twi_enable()      (PRR0 &= (uint8_t)~(1 << PRTWI))
1769:/usr/lib/avr/include/avr/power.h **** #define power_twi_disable()     (PRR0 |= (uint8_t)(1 << PRTWI))
1770:/usr/lib/avr/include/avr/power.h **** 
1771:/usr/lib/avr/include/avr/power.h **** #define power_timer0_enable()   (PRR0 &= (uint8_t)~(1 << PRTIM0))
1772:/usr/lib/avr/include/avr/power.h **** #define power_timer0_disable()  (PRR0 |= (uint8_t)(1 << PRTIM0))
1773:/usr/lib/avr/include/avr/power.h **** 
1774:/usr/lib/avr/include/avr/power.h **** #define power_timer1_enable()   (PRR0 &= (uint8_t)~(1 << PRTIM1))
1775:/usr/lib/avr/include/avr/power.h **** #define power_timer1_disable()  (PRR0 |= (uint8_t)(1 << PRTIM1))
1776:/usr/lib/avr/include/avr/power.h **** 
1777:/usr/lib/avr/include/avr/power.h **** #define power_timer2_enable()   (PRR0 &= (uint8_t)~(1 << PRTIM2))
1778:/usr/lib/avr/include/avr/power.h **** #define power_timer2_disable()  (PRR0 |= (uint8_t)(1 << PRTIM2))
1779:/usr/lib/avr/include/avr/power.h **** 
1780:/usr/lib/avr/include/avr/power.h **** #define power_timer3_enable()   (PRR1 &= (uint8_t)~(1 << PRTIM3))
1781:/usr/lib/avr/include/avr/power.h **** #define power_timer3_disable()  (PRR1 |= (uint8_t)(1 << PRTIM3))
1782:/usr/lib/avr/include/avr/power.h **** 
1783:/usr/lib/avr/include/avr/power.h **** #define power_timer4_enable()   (PRR1 &= (uint8_t)~(1 << PRTIM4))
1784:/usr/lib/avr/include/avr/power.h **** #define power_timer4_disable()  (PRR1 |= (uint8_t)(1 << PRTIM4))
1785:/usr/lib/avr/include/avr/power.h **** 
1786:/usr/lib/avr/include/avr/power.h **** #define power_timer5_enable()   (PRR1 &= (uint8_t)~(1 << PRTIM5))
1787:/usr/lib/avr/include/avr/power.h **** #define power_timer5_disable()  (PRR1 |= (uint8_t)(1 << PRTIM5))
1788:/usr/lib/avr/include/avr/power.h **** 
1789:/usr/lib/avr/include/avr/power.h **** #define power_usart0_enable()   (PRR0 &= (uint8_t)~(1 << PRUSART0))
1790:/usr/lib/avr/include/avr/power.h **** #define power_usart0_disable()  (PRR0 |= (uint8_t)(1 << PRUSART0))
1791:/usr/lib/avr/include/avr/power.h **** 
1792:/usr/lib/avr/include/avr/power.h **** #define power_usart1_enable()   (PRR1 &= (uint8_t)~(1 << PRUSART1))
1793:/usr/lib/avr/include/avr/power.h **** #define power_usart1_disable()  (PRR1 |= (uint8_t)(1 << PRUSART1))
1794:/usr/lib/avr/include/avr/power.h **** 
1795:/usr/lib/avr/include/avr/power.h **** #define power_usart2_enable()   (PRR1 &= (uint8_t)~(1 << PRUSART2))
1796:/usr/lib/avr/include/avr/power.h **** #define power_usart2_disable()  (PRR1 |= (uint8_t)(1 << PRUSART2))
1797:/usr/lib/avr/include/avr/power.h **** 
1798:/usr/lib/avr/include/avr/power.h **** #define power_usart3_enable()   (PRR1 &= (uint8_t)~(1 << PRUSART3))
1799:/usr/lib/avr/include/avr/power.h **** #define power_usart3_disable()  (PRR1 |= (uint8_t)(1 << PRUSART3))
1800:/usr/lib/avr/include/avr/power.h **** 
1801:/usr/lib/avr/include/avr/power.h **** #define power_all_enable() \
1802:/usr/lib/avr/include/avr/power.h **** do{ \
1803:/usr/lib/avr/include/avr/power.h ****     PRR0 &= (uint8_t)~((1<<PRADC)|(1<<PRSPI)|(1<<PRTWI)|(1<<PRTIM0)|(1<<PRTIM1)|(1<<PRTIM2)|(1<<PRU
1804:/usr/lib/avr/include/avr/power.h ****     PRR1 &= (uint8_t)~((1<<PRTIM3)|(1<<PRTIM4)|(1<<PRTIM5)|(1<<PRTIM5)|(1<<PRUSART1)|(1<<PRUSART2)|
1805:/usr/lib/avr/include/avr/power.h **** }while(0)
1806:/usr/lib/avr/include/avr/power.h **** 
1807:/usr/lib/avr/include/avr/power.h **** #define power_all_disable() \
1808:/usr/lib/avr/include/avr/power.h **** do{ \
1809:/usr/lib/avr/include/avr/power.h ****     PRR0 |= (uint8_t)((1<<PRADC)|(1<<PRSPI)|(1<<PRTWI)|(1<<PRTIM0)|(1<<PRTIM1)|(1<<PRTIM2)|(1<<PRUS
1810:/usr/lib/avr/include/avr/power.h ****     PRR1 |= (uint8_t)((1<<PRTIM3)|(1<<PRTIM4)|(1<<PRTIM5)|(1<<PRTIM5)|(1<<PRUSART1)|(1<<PRUSART2)|(
1811:/usr/lib/avr/include/avr/power.h **** }while(0)
1812:/usr/lib/avr/include/avr/power.h **** 
1813:/usr/lib/avr/include/avr/power.h **** 
1814:/usr/lib/avr/include/avr/power.h **** #elif defined(__AVR_ATmega128RFA1__)
1815:/usr/lib/avr/include/avr/power.h **** 
1816:/usr/lib/avr/include/avr/power.h **** #define power_adc_enable()      (PRR0 &= (uint8_t)~(1 << PRADC))
1817:/usr/lib/avr/include/avr/power.h **** #define power_adc_disable()     (PRR0 |= (uint8_t)(1 << PRADC))
1818:/usr/lib/avr/include/avr/power.h **** 
1819:/usr/lib/avr/include/avr/power.h **** #define power_spi_enable()      (PRR0 &= (uint8_t)~(1 << PRSPI))
1820:/usr/lib/avr/include/avr/power.h **** #define power_spi_disable()     (PRR0 |= (uint8_t)(1 << PRSPI))
1821:/usr/lib/avr/include/avr/power.h **** 
1822:/usr/lib/avr/include/avr/power.h **** #define power_twi_enable()      (PRR0 &= (uint8_t)~(1 << PRTWI))
1823:/usr/lib/avr/include/avr/power.h **** #define power_twi_disable()     (PRR0 |= (uint8_t)(1 << PRTWI))
1824:/usr/lib/avr/include/avr/power.h **** 
1825:/usr/lib/avr/include/avr/power.h **** #define power_timer0_enable()   (PRR0 &= (uint8_t)~(1 << PRTIM0))
1826:/usr/lib/avr/include/avr/power.h **** #define power_timer0_disable()  (PRR0 |= (uint8_t)(1 << PRTIM0))
1827:/usr/lib/avr/include/avr/power.h **** 
1828:/usr/lib/avr/include/avr/power.h **** #define power_timer1_enable()   (PRR0 &= (uint8_t)~(1 << PRTIM1))
1829:/usr/lib/avr/include/avr/power.h **** #define power_timer1_disable()  (PRR0 |= (uint8_t)(1 << PRTIM1))
1830:/usr/lib/avr/include/avr/power.h **** 
1831:/usr/lib/avr/include/avr/power.h **** #define power_timer2_enable()   (PRR0 &= (uint8_t)~(1 << PRTIM2))
1832:/usr/lib/avr/include/avr/power.h **** #define power_timer2_disable()  (PRR0 |= (uint8_t)(1 << PRTIM2))
1833:/usr/lib/avr/include/avr/power.h **** 
1834:/usr/lib/avr/include/avr/power.h **** #define power_timer3_enable()   (PRR1 &= (uint8_t)~(1 << PRTIM3))
1835:/usr/lib/avr/include/avr/power.h **** #define power_timer3_disable()  (PRR1 |= (uint8_t)(1 << PRTIM3))
1836:/usr/lib/avr/include/avr/power.h **** 
1837:/usr/lib/avr/include/avr/power.h **** #define power_timer4_enable()   (PRR1 &= (uint8_t)~(1 << PRTIM4))
1838:/usr/lib/avr/include/avr/power.h **** #define power_timer4_disable()  (PRR1 |= (uint8_t)(1 << PRTIM4))
1839:/usr/lib/avr/include/avr/power.h **** 
1840:/usr/lib/avr/include/avr/power.h **** #define power_timer5_enable()   (PRR1 &= (uint8_t)~(1 << PRTIM5))
1841:/usr/lib/avr/include/avr/power.h **** #define power_timer5_disable()  (PRR1 |= (uint8_t)(1 << PRTIM5))
1842:/usr/lib/avr/include/avr/power.h **** 
1843:/usr/lib/avr/include/avr/power.h **** #define power_usart0_enable()   (PRR0 &= (uint8_t)~(1 << PRUSART0))
1844:/usr/lib/avr/include/avr/power.h **** #define power_usart0_disable()  (PRR0 |= (uint8_t)(1 << PRUSART0))
1845:/usr/lib/avr/include/avr/power.h **** 
1846:/usr/lib/avr/include/avr/power.h **** #define power_usart1_enable()   (PRR1 &= (uint8_t)~(1 << PRUSART1))
1847:/usr/lib/avr/include/avr/power.h **** #define power_usart1_disable()  (PRR1 |= (uint8_t)(1 << PRUSART1))
1848:/usr/lib/avr/include/avr/power.h **** 
1849:/usr/lib/avr/include/avr/power.h **** #define power_all_enable() \
1850:/usr/lib/avr/include/avr/power.h **** do{ \
1851:/usr/lib/avr/include/avr/power.h ****     PRR0 &= (uint8_t)~((1<<PRADC)|(1<<PRSPI)|(1<<PRTWI)|(1<<PRTIM0)|(1<<PRTIM1)|(1<<PRTIM2)|(1<<PRU
1852:/usr/lib/avr/include/avr/power.h ****     PRR1 &= (uint8_t)~((1<<PRTIM3)|(1<<PRTIM4)|(1<<PRTIM5)|(1<<PRTIM5)|(1<<PRUSART1)); \
1853:/usr/lib/avr/include/avr/power.h **** }while(0)
1854:/usr/lib/avr/include/avr/power.h **** 
1855:/usr/lib/avr/include/avr/power.h **** #define power_all_disable() \
1856:/usr/lib/avr/include/avr/power.h **** do{ \
1857:/usr/lib/avr/include/avr/power.h ****     PRR0 |= (uint8_t)((1<<PRADC)|(1<<PRSPI)|(1<<PRTWI)|(1<<PRTIM0)|(1<<PRTIM1)|(1<<PRTIM2)|(1<<PRUS
1858:/usr/lib/avr/include/avr/power.h ****     PRR1 |= (uint8_t)((1<<PRTIM3)|(1<<PRTIM4)|(1<<PRTIM5)|(1<<PRTIM5)|(1<<PRUSART1)); \
1859:/usr/lib/avr/include/avr/power.h **** }while(0)
1860:/usr/lib/avr/include/avr/power.h **** 
1861:/usr/lib/avr/include/avr/power.h **** #elif defined(__AVR_ATmega256RFR2__) \
1862:/usr/lib/avr/include/avr/power.h **** || defined(__AVR_ATmega2564RFR2__) \
1863:/usr/lib/avr/include/avr/power.h **** || defined(__AVR_ATmega128RFR2__) \
1864:/usr/lib/avr/include/avr/power.h **** || defined(__AVR_ATmega1284RFR2__) \
1865:/usr/lib/avr/include/avr/power.h **** || defined(__AVR_ATmega64RFR2__) \
1866:/usr/lib/avr/include/avr/power.h **** || defined(__AVR_ATmega644RFR2__)
1867:/usr/lib/avr/include/avr/power.h **** 
1868:/usr/lib/avr/include/avr/power.h **** #define power_adc_enable()           (PRR0 &= (uint8_t)~(1 << PRADC))
1869:/usr/lib/avr/include/avr/power.h **** #define power_adc_disable()          (PRR0 |= (uint8_t)(1 << PRADC))
1870:/usr/lib/avr/include/avr/power.h **** 
1871:/usr/lib/avr/include/avr/power.h **** #define power_usart0_enable()        (PRR0 &= (uint8_t)~(1 << PRUSART0))
1872:/usr/lib/avr/include/avr/power.h **** #define power_usart0_disable()       (PRR0 |= (uint8_t)(1 << PRUSART0))
1873:/usr/lib/avr/include/avr/power.h **** 
1874:/usr/lib/avr/include/avr/power.h **** #define power_spi_enable()           (PRR0 &= (uint8_t)~(1 << PRSPI))
1875:/usr/lib/avr/include/avr/power.h **** #define power_spi_disable()          (PRR0 |= (uint8_t)(1 << PRSPI))
1876:/usr/lib/avr/include/avr/power.h **** 
1877:/usr/lib/avr/include/avr/power.h **** #define power_timer1_enable()        (PRR0 &= (uint8_t)~(1 << PRTIM1))
1878:/usr/lib/avr/include/avr/power.h **** #define power_timer1_disable()       (PRR0 |= (uint8_t)(1 << PRTIM1))
1879:/usr/lib/avr/include/avr/power.h **** 
1880:/usr/lib/avr/include/avr/power.h **** #define power_pga_enable()           (PRR0 &= (uint8_t)~(1 << PRPGA))
1881:/usr/lib/avr/include/avr/power.h **** #define power_pga_disable()          (PRR0 |= (uint8_t)(1 << PRPGA))
1882:/usr/lib/avr/include/avr/power.h **** 
1883:/usr/lib/avr/include/avr/power.h **** #define power_timer0_enable()        (PRR0 &= (uint8_t)~(1 << PRTIM0))
1884:/usr/lib/avr/include/avr/power.h **** #define power_timer0_disable()       (PRR0 |= (uint8_t)(1 << PRTIM0))
1885:/usr/lib/avr/include/avr/power.h **** 
1886:/usr/lib/avr/include/avr/power.h **** #define power_timer2_enable()        (PRR0 &= (uint8_t)~(1 << PRTIM2))
1887:/usr/lib/avr/include/avr/power.h **** #define power_timer2_disable()       (PRR0 |= (uint8_t)(1 << PRTIM2))
1888:/usr/lib/avr/include/avr/power.h **** 
1889:/usr/lib/avr/include/avr/power.h **** #define power_twi_enable()           (PRR0 &= (uint8_t)~(1 << PRTWI))
1890:/usr/lib/avr/include/avr/power.h **** #define power_twi_disable()          (PRR0 |= (uint8_t)(1 << PRTWI))
1891:/usr/lib/avr/include/avr/power.h **** 
1892:/usr/lib/avr/include/avr/power.h **** #define power_usart1_enable()        (PRR1 &= (uint8_t)~(1 << PRUSART1))
1893:/usr/lib/avr/include/avr/power.h **** #define power_usart1_disable()       (PRR1 |= (uint8_t)(1 << PRUSART1))
1894:/usr/lib/avr/include/avr/power.h **** 
1895:/usr/lib/avr/include/avr/power.h **** #define power_timer3_enable()        (PRR1 &= (uint8_t)~(1 << PRTIM3))
1896:/usr/lib/avr/include/avr/power.h **** #define power_timer3_disable()       (PRR1 |= (uint8_t)(1 << PRTIM3))
1897:/usr/lib/avr/include/avr/power.h **** 
1898:/usr/lib/avr/include/avr/power.h **** #define power_timer4_enable()        (PRR1 &= (uint8_t)~(1 << PRTIM4))
1899:/usr/lib/avr/include/avr/power.h **** #define power_timer4_disable()       (PRR1 |= (uint8_t)(1 << PRTIM4))
1900:/usr/lib/avr/include/avr/power.h **** 
1901:/usr/lib/avr/include/avr/power.h **** #define power_timer5_enable()        (PRR1 &= (uint8_t)~(1 << PRTIM5))
1902:/usr/lib/avr/include/avr/power.h **** #define power_timer5_disable()       (PRR1 |= (uint8_t)(1 << PRTIM5))
1903:/usr/lib/avr/include/avr/power.h **** 
1904:/usr/lib/avr/include/avr/power.h **** #define power_transceiver_enable()   (PRR1 &= (uint8_t)~(1 << PRTRX24))
1905:/usr/lib/avr/include/avr/power.h **** #define power_transceiver_disable()  (PRR1 |= (uint8_t)(1 << PRTRX24))
1906:/usr/lib/avr/include/avr/power.h **** 
1907:/usr/lib/avr/include/avr/power.h **** #define power_ram0_enable()          (PRR2 &= (uint8_t)~(1 << PRRAM0))
1908:/usr/lib/avr/include/avr/power.h **** #define power_ram0_disable()         (PRR2 |= (uint8_t)(1 << PRRAM0))
1909:/usr/lib/avr/include/avr/power.h **** 
1910:/usr/lib/avr/include/avr/power.h **** #define power_ram1_enable()          (PRR2 &= (uint8_t)~(1 << PRRAM1))
1911:/usr/lib/avr/include/avr/power.h **** #define power_ram1_disable()         (PRR2 |= (uint8_t)(1 << PRRAM1))
1912:/usr/lib/avr/include/avr/power.h **** 
1913:/usr/lib/avr/include/avr/power.h **** #define power_ram2_enable()          (PRR2 &= (uint8_t)~(1 << PRRAM2))
1914:/usr/lib/avr/include/avr/power.h **** #define power_ram2_disable()         (PRR2 |= (uint8_t)(1 << PRRAM2))
1915:/usr/lib/avr/include/avr/power.h **** 
1916:/usr/lib/avr/include/avr/power.h **** #define power_ram3_enable()          (PRR2 &= (uint8_t)~(1 << PRRAM3))
1917:/usr/lib/avr/include/avr/power.h **** #define power_ram3_disable()         (PRR2 |= (uint8_t)(1 << PRRAM3))
1918:/usr/lib/avr/include/avr/power.h **** 
1919:/usr/lib/avr/include/avr/power.h **** #define power_all_enable() \
1920:/usr/lib/avr/include/avr/power.h **** do{ \
1921:/usr/lib/avr/include/avr/power.h ****     PRR0 &= (uint8_t)~((1<<PRADC)|(1<<PRSPI)|(1<<PRTWI)|(1<<PRTIM0)|(1<<PRTIM1)|(1<<PRTIM2)|(1<<PRU
1922:/usr/lib/avr/include/avr/power.h ****     PRR1 &= (uint8_t)~((1<<PRUSART1)|(1<<PRTIM3)|(1<<PRTIM4)|(1<<PRTIM5)|(1<<PRTRX24)); \
1923:/usr/lib/avr/include/avr/power.h ****     PRR2 &= (uint8_t)~((1<<PRRAM0)|(1<<PRRAM1)|(1<<PRRAM2)|(1<<PRRAM3)); \
1924:/usr/lib/avr/include/avr/power.h **** }while(0)
1925:/usr/lib/avr/include/avr/power.h **** 
1926:/usr/lib/avr/include/avr/power.h **** #define power_all_disable() \
1927:/usr/lib/avr/include/avr/power.h **** do{ \
1928:/usr/lib/avr/include/avr/power.h ****     PRR0 |= (uint8_t)((1<<PRADC)|(1<<PRSPI)|(1<<PRTWI)|(1<<PRTIM0)|(1<<PRTIM1)|(1<<PRTIM2)|(1<<PRUS
1929:/usr/lib/avr/include/avr/power.h ****     PRR1 |= (uint8_t)((1<<PRUSART1)|(1<<PRTIM3)|(1<<PRTIM4)|(1<<PRTIM5)|(1<<PRTRX24)); \
1930:/usr/lib/avr/include/avr/power.h ****     PRR2 |= (uint8_t)((1<<PRRAM0)|(1<<PRRAM1)|(1<<PRRAM2)|(1<<PRRAM3)); \
1931:/usr/lib/avr/include/avr/power.h **** }while(0)
1932:/usr/lib/avr/include/avr/power.h **** 
1933:/usr/lib/avr/include/avr/power.h **** #elif defined(__AVR_AT90USB646__) \
1934:/usr/lib/avr/include/avr/power.h **** || defined(__AVR_AT90USB647__) \
1935:/usr/lib/avr/include/avr/power.h **** || defined(__AVR_AT90USB1286__) \
1936:/usr/lib/avr/include/avr/power.h **** || defined(__AVR_AT90USB1287__)
1937:/usr/lib/avr/include/avr/power.h **** 
1938:/usr/lib/avr/include/avr/power.h **** #define power_adc_enable()      (PRR0 &= (uint8_t)~(1 << PRADC))
1939:/usr/lib/avr/include/avr/power.h **** #define power_adc_disable()     (PRR0 |= (uint8_t)(1 << PRADC))
1940:/usr/lib/avr/include/avr/power.h **** 
1941:/usr/lib/avr/include/avr/power.h **** #define power_spi_enable()      (PRR0 &= (uint8_t)~(1 << PRSPI))
1942:/usr/lib/avr/include/avr/power.h **** #define power_spi_disable()     (PRR0 |= (uint8_t)(1 << PRSPI))
1943:/usr/lib/avr/include/avr/power.h **** 
1944:/usr/lib/avr/include/avr/power.h **** #define power_twi_enable()      (PRR0 &= (uint8_t)~(1 << PRTWI))
1945:/usr/lib/avr/include/avr/power.h **** #define power_twi_disable()     (PRR0 |= (uint8_t)(1 << PRTWI))
1946:/usr/lib/avr/include/avr/power.h **** 
1947:/usr/lib/avr/include/avr/power.h **** #define power_timer0_enable()   (PRR0 &= (uint8_t)~(1 << PRTIM0))
1948:/usr/lib/avr/include/avr/power.h **** #define power_timer0_disable()  (PRR0 |= (uint8_t)(1 << PRTIM0))
1949:/usr/lib/avr/include/avr/power.h **** 
1950:/usr/lib/avr/include/avr/power.h **** #define power_timer1_enable()   (PRR0 &= (uint8_t)~(1 << PRTIM1))
1951:/usr/lib/avr/include/avr/power.h **** #define power_timer1_disable()  (PRR0 |= (uint8_t)(1 << PRTIM1))
1952:/usr/lib/avr/include/avr/power.h **** 
1953:/usr/lib/avr/include/avr/power.h **** #define power_timer2_enable()   (PRR0 &= (uint8_t)~(1 << PRTIM2))
1954:/usr/lib/avr/include/avr/power.h **** #define power_timer2_disable()  (PRR0 |= (uint8_t)(1 << PRTIM2))
1955:/usr/lib/avr/include/avr/power.h **** 
1956:/usr/lib/avr/include/avr/power.h **** #define power_timer3_enable()   (PRR1 &= (uint8_t)~(1 << PRTIM3))
1957:/usr/lib/avr/include/avr/power.h **** #define power_timer3_disable()  (PRR1 |= (uint8_t)(1 << PRTIM3))
1958:/usr/lib/avr/include/avr/power.h **** 
1959:/usr/lib/avr/include/avr/power.h **** #define power_usart1_enable()   (PRR1 &= (uint8_t)~(1 << PRUSART1))
1960:/usr/lib/avr/include/avr/power.h **** #define power_usart1_disable()  (PRR1 |= (uint8_t)(1 << PRUSART1))
1961:/usr/lib/avr/include/avr/power.h **** 
1962:/usr/lib/avr/include/avr/power.h **** #define power_usb_enable()      (PRR1 &= (uint8_t)~(1 << PRUSB))
1963:/usr/lib/avr/include/avr/power.h **** #define power_usb_disable()     (PRR1 |= (uint8_t)(1 << PRUSB))
1964:/usr/lib/avr/include/avr/power.h **** 
1965:/usr/lib/avr/include/avr/power.h **** #define power_all_enable() \
1966:/usr/lib/avr/include/avr/power.h **** do{ \
1967:/usr/lib/avr/include/avr/power.h ****     PRR0 &= (uint8_t)~((1<<PRADC)|(1<<PRSPI)|(1<<PRTWI)|(1<<PRTIM0)|(1<<PRTIM1)|(1<<PRTIM2)); \
1968:/usr/lib/avr/include/avr/power.h ****     PRR1 &= (uint8_t)~((1<<PRTIM3)|(1<<PRUSART1)|(1<<PRUSB)); \
1969:/usr/lib/avr/include/avr/power.h **** }while(0)
1970:/usr/lib/avr/include/avr/power.h **** 
1971:/usr/lib/avr/include/avr/power.h **** #define power_all_disable() \
1972:/usr/lib/avr/include/avr/power.h **** do{ \
1973:/usr/lib/avr/include/avr/power.h ****     PRR0 |= (uint8_t)((1<<PRADC)|(1<<PRSPI)|(1<<PRTWI)|(1<<PRTIM0)|(1<<PRTIM1)|(1<<PRTIM2)); \
1974:/usr/lib/avr/include/avr/power.h ****     PRR1 |= (uint8_t)((1<<PRTIM3)|(1<<PRUSART1)|(1<<PRUSB)); \
1975:/usr/lib/avr/include/avr/power.h **** }while(0)
1976:/usr/lib/avr/include/avr/power.h **** 
1977:/usr/lib/avr/include/avr/power.h **** 
1978:/usr/lib/avr/include/avr/power.h **** #elif defined(__AVR_ATmega32U4__) \
1979:/usr/lib/avr/include/avr/power.h **** || defined(__AVR_ATmega16U4__)
1980:/usr/lib/avr/include/avr/power.h **** 
1981:/usr/lib/avr/include/avr/power.h **** 
1982:/usr/lib/avr/include/avr/power.h **** #define power_adc_enable()      (PRR0 &= (uint8_t)~(1 << PRADC))
1983:/usr/lib/avr/include/avr/power.h **** #define power_adc_disable()     (PRR0 |= (uint8_t)(1 << PRADC))
1984:/usr/lib/avr/include/avr/power.h **** 
1985:/usr/lib/avr/include/avr/power.h **** #define power_usart0_enable()   (PRR0 &= (uint8_t)~(1 << PRUSART0))
1986:/usr/lib/avr/include/avr/power.h **** #define power_usart0_disable()  (PRR0 |= (uint8_t)(1 << PRUSART0))
1987:/usr/lib/avr/include/avr/power.h **** 
1988:/usr/lib/avr/include/avr/power.h **** #define power_spi_enable()      (PRR0 &= (uint8_t)~(1 << PRSPI))
1989:/usr/lib/avr/include/avr/power.h **** #define power_spi_disable()     (PRR0 |= (uint8_t)(1 << PRSPI))
1990:/usr/lib/avr/include/avr/power.h **** 
1991:/usr/lib/avr/include/avr/power.h **** #define power_twi_enable()      (PRR0 &= (uint8_t)~(1 << PRTWI))
1992:/usr/lib/avr/include/avr/power.h **** #define power_twi_disable()     (PRR0 |= (uint8_t)(1 << PRTWI))
1993:/usr/lib/avr/include/avr/power.h **** 
1994:/usr/lib/avr/include/avr/power.h **** #define power_timer0_enable()   (PRR0 &= (uint8_t)~(1 << PRTIM0))
1995:/usr/lib/avr/include/avr/power.h **** #define power_timer0_disable()  (PRR0 |= (uint8_t)(1 << PRTIM0))
1996:/usr/lib/avr/include/avr/power.h **** 
1997:/usr/lib/avr/include/avr/power.h **** #define power_timer1_enable()   (PRR0 &= (uint8_t)~(1 << PRTIM1))
1998:/usr/lib/avr/include/avr/power.h **** #define power_timer1_disable()  (PRR0 |= (uint8_t)(1 << PRTIM1))
1999:/usr/lib/avr/include/avr/power.h **** 
2000:/usr/lib/avr/include/avr/power.h **** #define power_timer2_enable()   (PRR0 &= (uint8_t)~(1 << PRTIM2))
2001:/usr/lib/avr/include/avr/power.h **** #define power_timer2_disable()  (PRR0 |= (uint8_t)(1 << PRTIM2))
2002:/usr/lib/avr/include/avr/power.h **** 
2003:/usr/lib/avr/include/avr/power.h **** #define power_timer3_enable()   (PRR1 &= (uint8_t)~(1 << PRTIM3))
2004:/usr/lib/avr/include/avr/power.h **** #define power_timer3_disable()  (PRR1 |= (uint8_t)(1 << PRTIM3))
2005:/usr/lib/avr/include/avr/power.h **** 
2006:/usr/lib/avr/include/avr/power.h **** #define power_usart1_enable()   (PRR1 &= (uint8_t)~(1 << PRUSART1))
2007:/usr/lib/avr/include/avr/power.h **** #define power_usart1_disable()  (PRR1 |= (uint8_t)(1 << PRUSART1))
2008:/usr/lib/avr/include/avr/power.h **** 
2009:/usr/lib/avr/include/avr/power.h **** #define power_usb_enable()      (PRR1 &= (uint8_t)~(1 << PRUSB))
2010:/usr/lib/avr/include/avr/power.h **** #define power_usb_disable()     (PRR1 |= (uint8_t)(1 << PRUSB))
2011:/usr/lib/avr/include/avr/power.h **** 
2012:/usr/lib/avr/include/avr/power.h **** #define power_all_enable() \
2013:/usr/lib/avr/include/avr/power.h **** do{ \
2014:/usr/lib/avr/include/avr/power.h ****     PRR0 &= (uint8_t)~((1<<PRADC)|(1<<PRUSART0)|(1<<PRSPI)|(1<<PRTWI)|(1<<PRTIM0)|(1<<PRTIM1)|(1<<P
2015:/usr/lib/avr/include/avr/power.h ****     PRR1 &= (uint8_t)~((1<<PRTIM3)|(1<<PRUSART1)|(1<<PRUSB)); \
2016:/usr/lib/avr/include/avr/power.h **** }while(0)
2017:/usr/lib/avr/include/avr/power.h **** 
2018:/usr/lib/avr/include/avr/power.h **** #define power_all_disable() \
2019:/usr/lib/avr/include/avr/power.h **** do{ \
2020:/usr/lib/avr/include/avr/power.h ****     PRR0 |= (uint8_t)((1<<PRADC)|(1<<PRUSART0)|(1<<PRSPI)|(1<<PRTWI)|(1<<PRTIM0)|(1<<PRTIM1)|(1<<PR
2021:/usr/lib/avr/include/avr/power.h ****     PRR1 |= (uint8_t)((1<<PRTIM3)|(1<<PRUSART1)|(1<<PRUSB)); \
2022:/usr/lib/avr/include/avr/power.h **** }while(0)
2023:/usr/lib/avr/include/avr/power.h **** 
2024:/usr/lib/avr/include/avr/power.h **** 
2025:/usr/lib/avr/include/avr/power.h **** #elif defined(__AVR_ATmega32U6__)
2026:/usr/lib/avr/include/avr/power.h **** 
2027:/usr/lib/avr/include/avr/power.h **** 
2028:/usr/lib/avr/include/avr/power.h **** #define power_adc_enable()      (PRR0 &= (uint8_t)~(1 << PRADC))
2029:/usr/lib/avr/include/avr/power.h **** #define power_adc_disable()     (PRR0 |= (uint8_t)(1 << PRADC))
2030:/usr/lib/avr/include/avr/power.h **** 
2031:/usr/lib/avr/include/avr/power.h **** #define power_spi_enable()      (PRR0 &= (uint8_t)~(1 << PRSPI))
2032:/usr/lib/avr/include/avr/power.h **** #define power_spi_disable()     (PRR0 |= (uint8_t)(1 << PRSPI))
2033:/usr/lib/avr/include/avr/power.h **** 
2034:/usr/lib/avr/include/avr/power.h **** #define power_twi_enable()      (PRR0 &= (uint8_t)~(1 << PRTWI))
2035:/usr/lib/avr/include/avr/power.h **** #define power_twi_disable()     (PRR0 |= (uint8_t)(1 << PRTWI))
2036:/usr/lib/avr/include/avr/power.h **** 
2037:/usr/lib/avr/include/avr/power.h **** #define power_timer0_enable()   (PRR0 &= (uint8_t)~(1 << PRTIM0))
2038:/usr/lib/avr/include/avr/power.h **** #define power_timer0_disable()  (PRR0 |= (uint8_t)(1 << PRTIM0))
2039:/usr/lib/avr/include/avr/power.h **** 
2040:/usr/lib/avr/include/avr/power.h **** #define power_timer1_enable()   (PRR0 &= (uint8_t)~(1 << PRTIM1))
2041:/usr/lib/avr/include/avr/power.h **** #define power_timer1_disable()  (PRR0 |= (uint8_t)(1 << PRTIM1))
2042:/usr/lib/avr/include/avr/power.h **** 
2043:/usr/lib/avr/include/avr/power.h **** #define power_timer2_enable()   (PRR0 &= (uint8_t)~(1 << PRTIM2))
2044:/usr/lib/avr/include/avr/power.h **** #define power_timer2_disable()  (PRR0 |= (uint8_t)(1 << PRTIM2))
2045:/usr/lib/avr/include/avr/power.h **** 
2046:/usr/lib/avr/include/avr/power.h **** #define power_timer3_enable()   (PRR1 &= (uint8_t)~(1 << PRTIM3))
2047:/usr/lib/avr/include/avr/power.h **** #define power_timer3_disable()  (PRR1 |= (uint8_t)(1 << PRTIM3))
2048:/usr/lib/avr/include/avr/power.h **** 
2049:/usr/lib/avr/include/avr/power.h **** #define power_usart1_enable()   (PRR1 &= (uint8_t)~(1 << PRUSART1))
2050:/usr/lib/avr/include/avr/power.h **** #define power_usart1_disable()  (PRR1 |= (uint8_t)(1 << PRUSART1))
2051:/usr/lib/avr/include/avr/power.h **** 
2052:/usr/lib/avr/include/avr/power.h **** #define power_usb_enable()      (PRR1 &= (uint8_t)~(1 << PRUSB))
2053:/usr/lib/avr/include/avr/power.h **** #define power_usb_disable()     (PRR1 |= (uint8_t)(1 << PRUSB))
2054:/usr/lib/avr/include/avr/power.h **** 
2055:/usr/lib/avr/include/avr/power.h **** #define power_all_enable() \
2056:/usr/lib/avr/include/avr/power.h **** do{ \
2057:/usr/lib/avr/include/avr/power.h ****     PRR0 &= (uint8_t)~((1<<PRADC)|(1<<PRSPI)|(1<<PRTWI)|(1<<PRTIM0)|(1<<PRTIM1)|(1<<PRTIM2)); \
2058:/usr/lib/avr/include/avr/power.h ****     PRR1 &= (uint8_t)~((1<<PRTIM3)|(1<<PRUSART1)|(1<<PRUSB)); \
2059:/usr/lib/avr/include/avr/power.h **** }while(0)
2060:/usr/lib/avr/include/avr/power.h **** 
2061:/usr/lib/avr/include/avr/power.h **** #define power_all_disable() \
2062:/usr/lib/avr/include/avr/power.h **** do{ \
2063:/usr/lib/avr/include/avr/power.h ****     PRR0 |= (uint8_t)((1<<PRADC)|(1<<PRSPI)|(1<<PRTWI)|(1<<PRTIM0)|(1<<PRTIM1)|(1<<PRTIM2)); \
2064:/usr/lib/avr/include/avr/power.h ****     PRR1 |= (uint8_t)((1<<PRTIM3)|(1<<PRUSART1)|(1<<PRUSB)); \
2065:/usr/lib/avr/include/avr/power.h **** }while(0)
2066:/usr/lib/avr/include/avr/power.h **** 
2067:/usr/lib/avr/include/avr/power.h **** 
2068:/usr/lib/avr/include/avr/power.h **** #elif defined(__AVR_AT90PWM1__)
2069:/usr/lib/avr/include/avr/power.h **** 
2070:/usr/lib/avr/include/avr/power.h **** #define power_adc_enable()      (PRR &= (uint8_t)~(1 << PRADC))
2071:/usr/lib/avr/include/avr/power.h **** #define power_adc_disable()     (PRR |= (uint8_t)(1 << PRADC))
2072:/usr/lib/avr/include/avr/power.h **** 
2073:/usr/lib/avr/include/avr/power.h **** #define power_spi_enable()      (PRR &= (uint8_t)~(1 << PRSPI))
2074:/usr/lib/avr/include/avr/power.h **** #define power_spi_disable()     (PRR |= (uint8_t)(1 << PRSPI))
2075:/usr/lib/avr/include/avr/power.h **** 
2076:/usr/lib/avr/include/avr/power.h **** #define power_timer0_enable()   (PRR &= (uint8_t)~(1 << PRTIM0))
2077:/usr/lib/avr/include/avr/power.h **** #define power_timer0_disable()  (PRR |= (uint8_t)(1 << PRTIM0))
2078:/usr/lib/avr/include/avr/power.h **** 
2079:/usr/lib/avr/include/avr/power.h **** #define power_timer1_enable()   (PRR &= (uint8_t)~(1 << PRTIM1))
2080:/usr/lib/avr/include/avr/power.h **** #define power_timer1_disable()  (PRR |= (uint8_t)(1 << PRTIM1))
2081:/usr/lib/avr/include/avr/power.h **** 
2082:/usr/lib/avr/include/avr/power.h **** /* Power Stage Controller 0 */
2083:/usr/lib/avr/include/avr/power.h **** #define power_psc0_enable()     (PRR &= (uint8_t)~(1 << PRPSC0))
2084:/usr/lib/avr/include/avr/power.h **** #define power_psc0_disable()    (PRR |= (uint8_t)(1 << PRPSC0))
2085:/usr/lib/avr/include/avr/power.h **** 
2086:/usr/lib/avr/include/avr/power.h **** /* Power Stage Controller 1 */
2087:/usr/lib/avr/include/avr/power.h **** #define power_psc1_enable()     (PRR &= (uint8_t)~(1 << PRPSC1))
2088:/usr/lib/avr/include/avr/power.h **** #define power_psc1_disable()    (PRR |= (uint8_t)(1 << PRPSC1))
2089:/usr/lib/avr/include/avr/power.h **** 
2090:/usr/lib/avr/include/avr/power.h **** /* Power Stage Controller 2 */
2091:/usr/lib/avr/include/avr/power.h **** #define power_psc2_enable()     (PRR &= (uint8_t)~(1 << PRPSC2))
2092:/usr/lib/avr/include/avr/power.h **** #define power_psc2_disable()    (PRR |= (uint8_t)(1 << PRPSC2))
2093:/usr/lib/avr/include/avr/power.h **** 
2094:/usr/lib/avr/include/avr/power.h **** #define power_all_enable()      (PRR &= (uint8_t)~((1<<PRADC)|(1<<PRSPI)|(1<<PRTIM0)|(1<<PRTIM1)|(1
2095:/usr/lib/avr/include/avr/power.h **** #define power_all_disable()     (PRR |= (uint8_t)((1<<PRADC)|(1<<PRSPI)|(1<<PRTIM0)|(1<<PRTIM1)|(1<
2096:/usr/lib/avr/include/avr/power.h **** 
2097:/usr/lib/avr/include/avr/power.h **** 
2098:/usr/lib/avr/include/avr/power.h **** #elif defined(__AVR_AT90PWM2__) \
2099:/usr/lib/avr/include/avr/power.h **** || defined(__AVR_AT90PWM2B__) \
2100:/usr/lib/avr/include/avr/power.h **** || defined(__AVR_AT90PWM3__) \
2101:/usr/lib/avr/include/avr/power.h **** || defined(__AVR_AT90PWM3B__) \
2102:/usr/lib/avr/include/avr/power.h **** || defined(__AVR_AT90PWM216__) \
2103:/usr/lib/avr/include/avr/power.h **** || defined(__AVR_AT90PWM316__)
2104:/usr/lib/avr/include/avr/power.h **** 
2105:/usr/lib/avr/include/avr/power.h **** #define power_adc_enable()      (PRR &= (uint8_t)~(1 << PRADC))
2106:/usr/lib/avr/include/avr/power.h **** #define power_adc_disable()     (PRR |= (uint8_t)(1 << PRADC))
2107:/usr/lib/avr/include/avr/power.h **** 
2108:/usr/lib/avr/include/avr/power.h **** #define power_spi_enable()      (PRR &= (uint8_t)~(1 << PRSPI))
2109:/usr/lib/avr/include/avr/power.h **** #define power_spi_disable()     (PRR |= (uint8_t)(1 << PRSPI))
2110:/usr/lib/avr/include/avr/power.h **** 
2111:/usr/lib/avr/include/avr/power.h **** #define power_usart_enable()    (PRR &= (uint8_t)~(1 << PRUSART0))
2112:/usr/lib/avr/include/avr/power.h **** #define power_usart_disable()   (PRR |= (uint8_t)(1 << PRUSART0))
2113:/usr/lib/avr/include/avr/power.h **** 
2114:/usr/lib/avr/include/avr/power.h **** #define power_timer0_enable()   (PRR &= (uint8_t)~(1 << PRTIM0))
2115:/usr/lib/avr/include/avr/power.h **** #define power_timer0_disable()  (PRR |= (uint8_t)(1 << PRTIM0))
2116:/usr/lib/avr/include/avr/power.h **** 
2117:/usr/lib/avr/include/avr/power.h **** #define power_timer1_enable()   (PRR &= (uint8_t)~(1 << PRTIM1))
2118:/usr/lib/avr/include/avr/power.h **** #define power_timer1_disable()  (PRR |= (uint8_t)(1 << PRTIM1))
2119:/usr/lib/avr/include/avr/power.h **** 
2120:/usr/lib/avr/include/avr/power.h **** /* Power Stage Controller 0 */
2121:/usr/lib/avr/include/avr/power.h **** #define power_psc0_enable()     (PRR &= (uint8_t)~(1 << PRPSC0))
2122:/usr/lib/avr/include/avr/power.h **** #define power_psc0_disable()    (PRR |= (uint8_t)(1 << PRPSC0))
2123:/usr/lib/avr/include/avr/power.h **** 
2124:/usr/lib/avr/include/avr/power.h **** /* Power Stage Controller 1 */
2125:/usr/lib/avr/include/avr/power.h **** #define power_psc1_enable()     (PRR &= (uint8_t)~(1 << PRPSC1))
2126:/usr/lib/avr/include/avr/power.h **** #define power_psc1_disable()    (PRR |= (uint8_t)(1 << PRPSC1))
2127:/usr/lib/avr/include/avr/power.h **** 
2128:/usr/lib/avr/include/avr/power.h **** /* Power Stage Controller 2 */
2129:/usr/lib/avr/include/avr/power.h **** #define power_psc2_enable()     (PRR &= (uint8_t)~(1 << PRPSC2))
2130:/usr/lib/avr/include/avr/power.h **** #define power_psc2_disable()    (PRR |= (uint8_t)(1 << PRPSC2))
2131:/usr/lib/avr/include/avr/power.h **** 
2132:/usr/lib/avr/include/avr/power.h **** #define power_all_enable()      (PRR &= (uint8_t)~((1<<PRADC)|(1<<PRSPI)|(1<<PRUSART0)|(1<<PRTIM0)|
2133:/usr/lib/avr/include/avr/power.h **** #define power_all_disable()     (PRR |= (uint8_t)((1<<PRADC)|(1<<PRSPI)|(1<<PRUSART0)|(1<<PRTIM0)|(
2134:/usr/lib/avr/include/avr/power.h **** 
2135:/usr/lib/avr/include/avr/power.h **** 
2136:/usr/lib/avr/include/avr/power.h **** #elif defined(__AVR_AT90PWM81__) \
2137:/usr/lib/avr/include/avr/power.h **** || defined(__AVR_AT90PWM161__)
2138:/usr/lib/avr/include/avr/power.h **** 
2139:/usr/lib/avr/include/avr/power.h **** #define power_adc_enable()      (PRR &= (uint8_t)~(1 << PRADC))
2140:/usr/lib/avr/include/avr/power.h **** #define power_adc_disable()     (PRR |= (uint8_t)(1 << PRADC))
2141:/usr/lib/avr/include/avr/power.h **** 
2142:/usr/lib/avr/include/avr/power.h **** #define power_spi_enable()      (PRR &= (uint8_t)~(1 << PRSPI))
2143:/usr/lib/avr/include/avr/power.h **** #define power_spi_disable()     (PRR |= (uint8_t)(1 << PRSPI))
2144:/usr/lib/avr/include/avr/power.h **** 
2145:/usr/lib/avr/include/avr/power.h **** #define power_timer1_enable()   (PRR &= (uint8_t)~(1 << PRTIM1))
2146:/usr/lib/avr/include/avr/power.h **** #define power_timer1_disable()  (PRR |= (uint8_t)(1 << PRTIM1))
2147:/usr/lib/avr/include/avr/power.h **** 
2148:/usr/lib/avr/include/avr/power.h **** /* Reduced Power Stage Controller */
2149:/usr/lib/avr/include/avr/power.h **** #define power_pscr_enable()     (PRR &= (uint8_t)~(1 << PRPSCR))
2150:/usr/lib/avr/include/avr/power.h **** #define power_pscr_disable()    (PRR |= (uint8_t)(1 << PRPSCR))
2151:/usr/lib/avr/include/avr/power.h **** 
2152:/usr/lib/avr/include/avr/power.h **** /* Power Stage Controller 2 */
2153:/usr/lib/avr/include/avr/power.h **** #define power_psc2_enable()     (PRR &= (uint8_t)~(1 << PRPSC2))
2154:/usr/lib/avr/include/avr/power.h **** #define power_psc2_disable()    (PRR |= (uint8_t)(1 << PRPSC2))
2155:/usr/lib/avr/include/avr/power.h **** 
2156:/usr/lib/avr/include/avr/power.h **** #define power_all_enable()      (PRR &= (uint8_t)~((1<<PRADC)|(1<<PRSPI)|(1<<PRTIM1)|(1<<PRPSCR)|(1
2157:/usr/lib/avr/include/avr/power.h **** #define power_all_disable()     (PRR |= (uint8_t)((1<<PRADC)|(1<<PRSPI)|(1<<PRTIM1)|(1<<PRPSCR)|(1<
2158:/usr/lib/avr/include/avr/power.h **** 
2159:/usr/lib/avr/include/avr/power.h **** 
2160:/usr/lib/avr/include/avr/power.h **** #elif defined(__AVR_ATmega165__) \
2161:/usr/lib/avr/include/avr/power.h **** || defined(__AVR_ATmega165A__) \
2162:/usr/lib/avr/include/avr/power.h **** || defined(__AVR_ATmega165P__) \
2163:/usr/lib/avr/include/avr/power.h **** || defined(__AVR_ATmega165PA__) \
2164:/usr/lib/avr/include/avr/power.h **** || defined(__AVR_ATmega325__) \
2165:/usr/lib/avr/include/avr/power.h **** || defined(__AVR_ATmega325A__) \
2166:/usr/lib/avr/include/avr/power.h **** || defined(__AVR_ATmega325P__) \
2167:/usr/lib/avr/include/avr/power.h **** || defined(__AVR_ATmega325PA__) \
2168:/usr/lib/avr/include/avr/power.h **** || defined(__AVR_ATmega3250__) \
2169:/usr/lib/avr/include/avr/power.h **** || defined(__AVR_ATmega3250A__) \
2170:/usr/lib/avr/include/avr/power.h **** || defined(__AVR_ATmega3250P__) \
2171:/usr/lib/avr/include/avr/power.h **** || defined(__AVR_ATmega3250PA__) \
2172:/usr/lib/avr/include/avr/power.h **** || defined(__AVR_ATmega645__) \
2173:/usr/lib/avr/include/avr/power.h **** || defined(__AVR_ATmega645A__) \
2174:/usr/lib/avr/include/avr/power.h **** || defined(__AVR_ATmega645P__) \
2175:/usr/lib/avr/include/avr/power.h **** || defined(__AVR_ATmega6450__) \
2176:/usr/lib/avr/include/avr/power.h **** || defined(__AVR_ATmega6450A__) \
2177:/usr/lib/avr/include/avr/power.h **** || defined(__AVR_ATmega6450P__)
2178:/usr/lib/avr/include/avr/power.h **** 
2179:/usr/lib/avr/include/avr/power.h **** #define power_adc_enable()      (PRR &= (uint8_t)~(1 << PRADC))
2180:/usr/lib/avr/include/avr/power.h **** #define power_adc_disable()     (PRR |= (uint8_t)(1 << PRADC))
2181:/usr/lib/avr/include/avr/power.h **** 
2182:/usr/lib/avr/include/avr/power.h **** #define power_spi_enable()      (PRR &= (uint8_t)~(1 << PRSPI))
2183:/usr/lib/avr/include/avr/power.h **** #define power_spi_disable()     (PRR |= (uint8_t)(1 << PRSPI))
2184:/usr/lib/avr/include/avr/power.h **** 
2185:/usr/lib/avr/include/avr/power.h **** #define power_usart0_enable()   (PRR &= (uint8_t)~(1 << PRUSART0))
2186:/usr/lib/avr/include/avr/power.h **** #define power_usart0_disable()  (PRR |= (uint8_t)(1 << PRUSART0))
2187:/usr/lib/avr/include/avr/power.h **** 
2188:/usr/lib/avr/include/avr/power.h **** #define power_timer1_enable()   (PRR &= (uint8_t)~(1 << PRTIM1))
2189:/usr/lib/avr/include/avr/power.h **** #define power_timer1_disable()  (PRR |= (uint8_t)(1 << PRTIM1))
2190:/usr/lib/avr/include/avr/power.h **** 
2191:/usr/lib/avr/include/avr/power.h **** #define power_all_enable()      (PRR &= (uint8_t)~((1<<PRADC)|(1<<PRSPI)|(1<<PRUSART0)|(1<<PRTIM1))
2192:/usr/lib/avr/include/avr/power.h **** #define power_all_disable()     (PRR |= (uint8_t)((1<<PRADC)|(1<<PRSPI)|(1<<PRUSART0)|(1<<PRTIM1)))
2193:/usr/lib/avr/include/avr/power.h **** 
2194:/usr/lib/avr/include/avr/power.h **** 
2195:/usr/lib/avr/include/avr/power.h **** #elif defined(__AVR_ATmega169__) \
2196:/usr/lib/avr/include/avr/power.h **** || defined(__AVR_ATmega169A__) \
2197:/usr/lib/avr/include/avr/power.h **** || defined(__AVR_ATmega169P__) \
2198:/usr/lib/avr/include/avr/power.h **** || defined(__AVR_ATmega169PA__) \
2199:/usr/lib/avr/include/avr/power.h **** || defined(__AVR_ATmega329__) \
2200:/usr/lib/avr/include/avr/power.h **** || defined(__AVR_ATmega329A__) \
2201:/usr/lib/avr/include/avr/power.h **** || defined(__AVR_ATmega329P__) \
2202:/usr/lib/avr/include/avr/power.h **** || defined(__AVR_ATmega329PA__) \
2203:/usr/lib/avr/include/avr/power.h **** || defined(__AVR_ATmega3290__) \
2204:/usr/lib/avr/include/avr/power.h **** || defined(__AVR_ATmega3290A__) \
2205:/usr/lib/avr/include/avr/power.h **** || defined(__AVR_ATmega3290P__) \
2206:/usr/lib/avr/include/avr/power.h **** || defined(__AVR_ATmega3290PA__) \
2207:/usr/lib/avr/include/avr/power.h **** || defined(__AVR_ATmega649__) \
2208:/usr/lib/avr/include/avr/power.h **** || defined(__AVR_ATmega649A__) \
2209:/usr/lib/avr/include/avr/power.h **** || defined(__AVR_ATmega649P__) \
2210:/usr/lib/avr/include/avr/power.h **** || defined(__AVR_ATmega6490__) \
2211:/usr/lib/avr/include/avr/power.h **** || defined(__AVR_ATmega6490A__) \
2212:/usr/lib/avr/include/avr/power.h **** || defined(__AVR_ATmega6490P__)
2213:/usr/lib/avr/include/avr/power.h **** 
2214:/usr/lib/avr/include/avr/power.h **** #define power_adc_enable()      (PRR &= (uint8_t)~(1 << PRADC))
2215:/usr/lib/avr/include/avr/power.h **** #define power_adc_disable()     (PRR |= (uint8_t)(1 << PRADC))
2216:/usr/lib/avr/include/avr/power.h **** 
2217:/usr/lib/avr/include/avr/power.h **** #define power_spi_enable()      (PRR &= (uint8_t)~(1 << PRSPI))
2218:/usr/lib/avr/include/avr/power.h **** #define power_spi_disable()     (PRR |= (uint8_t)(1 << PRSPI))
2219:/usr/lib/avr/include/avr/power.h **** 
2220:/usr/lib/avr/include/avr/power.h **** #define power_usart0_enable()   (PRR &= (uint8_t)~(1 << PRUSART0))
2221:/usr/lib/avr/include/avr/power.h **** #define power_usart0_disable()  (PRR |= (uint8_t)(1 << PRUSART0))
2222:/usr/lib/avr/include/avr/power.h **** 
2223:/usr/lib/avr/include/avr/power.h **** #define power_timer1_enable()   (PRR &= (uint8_t)~(1 << PRTIM1))
2224:/usr/lib/avr/include/avr/power.h **** #define power_timer1_disable()  (PRR |= (uint8_t)(1 << PRTIM1))
2225:/usr/lib/avr/include/avr/power.h **** 
2226:/usr/lib/avr/include/avr/power.h **** #define power_lcd_enable()      (PRR &= (uint8_t)~(1 << PRLCD))
2227:/usr/lib/avr/include/avr/power.h **** #define power_lcd_disable()     (PRR |= (uint8_t)(1 << PRLCD))
2228:/usr/lib/avr/include/avr/power.h **** 
2229:/usr/lib/avr/include/avr/power.h **** #define power_all_enable()      (PRR &= (uint8_t)~((1<<PRADC)|(1<<PRSPI)|(1<<PRUSART0)|(1<<PRTIM1)|
2230:/usr/lib/avr/include/avr/power.h **** #define power_all_disable()     (PRR |= (uint8_t)((1<<PRADC)|(1<<PRSPI)|(1<<PRUSART0)|(1<<PRTIM1)|(
2231:/usr/lib/avr/include/avr/power.h **** 
2232:/usr/lib/avr/include/avr/power.h **** 
2233:/usr/lib/avr/include/avr/power.h **** #elif defined(__AVR_ATmega164A__) \
2234:/usr/lib/avr/include/avr/power.h **** || defined(__AVR_ATmega164P__) \
2235:/usr/lib/avr/include/avr/power.h **** || defined(__AVR_ATmega324A__) \
2236:/usr/lib/avr/include/avr/power.h **** || defined(__AVR_ATmega324P__) \
2237:/usr/lib/avr/include/avr/power.h **** || defined(__AVR_ATmega324PA__) \
2238:/usr/lib/avr/include/avr/power.h **** || defined(__AVR_ATmega644P__) \
2239:/usr/lib/avr/include/avr/power.h **** || defined(__AVR_ATmega644A__) \
2240:/usr/lib/avr/include/avr/power.h **** || defined(__AVR_ATmega644PA__)
2241:/usr/lib/avr/include/avr/power.h **** 
2242:/usr/lib/avr/include/avr/power.h **** #define power_adc_enable()      (PRR0 &= (uint8_t)~(1 << PRADC))
2243:/usr/lib/avr/include/avr/power.h **** #define power_adc_disable()     (PRR0 |= (uint8_t)(1 << PRADC))
2244:/usr/lib/avr/include/avr/power.h **** 
2245:/usr/lib/avr/include/avr/power.h **** #define power_spi_enable()      (PRR0 &= (uint8_t)~(1 << PRSPI))
2246:/usr/lib/avr/include/avr/power.h **** #define power_spi_disable()     (PRR0 |= (uint8_t)(1 << PRSPI))
2247:/usr/lib/avr/include/avr/power.h **** 
2248:/usr/lib/avr/include/avr/power.h **** #define power_usart0_enable()   (PRR0 &= (uint8_t)~(1 << PRUSART0))
2249:/usr/lib/avr/include/avr/power.h **** #define power_usart0_disable()  (PRR0 |= (uint8_t)(1 << PRUSART0))
2250:/usr/lib/avr/include/avr/power.h **** 
2251:/usr/lib/avr/include/avr/power.h **** #define power_usart1_enable()   (PRR0 &= (uint8_t)~(1 << PRUSART1))
2252:/usr/lib/avr/include/avr/power.h **** #define power_usart1_disable()  (PRR0 |= (uint8_t)(1 << PRUSART1))
2253:/usr/lib/avr/include/avr/power.h **** 
2254:/usr/lib/avr/include/avr/power.h **** #define power_timer0_enable()   (PRR0 &= (uint8_t)~(1 << PRTIM0))
2255:/usr/lib/avr/include/avr/power.h **** #define power_timer0_disable()  (PRR0 |= (uint8_t)(1 << PRTIM0))
2256:/usr/lib/avr/include/avr/power.h **** 
2257:/usr/lib/avr/include/avr/power.h **** #define power_timer1_enable()   (PRR0 &= (uint8_t)~(1 << PRTIM1))
2258:/usr/lib/avr/include/avr/power.h **** #define power_timer1_disable()  (PRR0 |= (uint8_t)(1 << PRTIM1))
2259:/usr/lib/avr/include/avr/power.h **** 
2260:/usr/lib/avr/include/avr/power.h **** #define power_timer2_enable()   (PRR0 &= (uint8_t)~(1 << PRTIM2))
2261:/usr/lib/avr/include/avr/power.h **** #define power_timer2_disable()  (PRR0 |= (uint8_t)(1 << PRTIM2))
2262:/usr/lib/avr/include/avr/power.h **** 
2263:/usr/lib/avr/include/avr/power.h **** #define power_twi_enable()      (PRR0 &= (uint8_t)~(1 << PRTWI))
2264:/usr/lib/avr/include/avr/power.h **** #define power_twi_disable()     (PRR0 |= (uint8_t)(1 << PRTWI))
2265:/usr/lib/avr/include/avr/power.h **** 
2266:/usr/lib/avr/include/avr/power.h **** #define power_all_enable()      (PRR0 &= (uint8_t)~((1<<PRADC)|(1<<PRSPI)|(1<<PRUSART0)|(1<<PRUSART
2267:/usr/lib/avr/include/avr/power.h **** #define power_all_disable()     (PRR0 |= (uint8_t)((1<<PRADC)|(1<<PRSPI)|(1<<PRUSART0)|(1<<PRUSART1
2268:/usr/lib/avr/include/avr/power.h **** 
2269:/usr/lib/avr/include/avr/power.h **** 
2270:/usr/lib/avr/include/avr/power.h **** #elif defined(__AVR_ATmega644__) \
2271:/usr/lib/avr/include/avr/power.h **** || defined(__AVR_ATmega164PA__)
2272:/usr/lib/avr/include/avr/power.h **** 
2273:/usr/lib/avr/include/avr/power.h **** #define power_adc_enable()      (PRR0 &= (uint8_t)~(1 << PRADC))
2274:/usr/lib/avr/include/avr/power.h **** #define power_adc_disable()     (PRR0 |= (uint8_t)(1 << PRADC))
2275:/usr/lib/avr/include/avr/power.h **** 
2276:/usr/lib/avr/include/avr/power.h **** #define power_spi_enable()      (PRR0 &= (uint8_t)~(1 << PRSPI))
2277:/usr/lib/avr/include/avr/power.h **** #define power_spi_disable()     (PRR0 |= (uint8_t)(1 << PRSPI))
2278:/usr/lib/avr/include/avr/power.h **** 
2279:/usr/lib/avr/include/avr/power.h **** #define power_usart0_enable()   (PRR0 &= (uint8_t)~(1 << PRUSART0))
2280:/usr/lib/avr/include/avr/power.h **** #define power_usart0_disable()  (PRR0 |= (uint8_t)(1 << PRUSART0))
2281:/usr/lib/avr/include/avr/power.h **** 
2282:/usr/lib/avr/include/avr/power.h **** #define power_timer0_enable()   (PRR0 &= (uint8_t)~(1 << PRTIM0))
2283:/usr/lib/avr/include/avr/power.h **** #define power_timer0_disable()  (PRR0 |= (uint8_t)(1 << PRTIM0))
2284:/usr/lib/avr/include/avr/power.h **** 
2285:/usr/lib/avr/include/avr/power.h **** #define power_timer1_enable()   (PRR0 &= (uint8_t)~(1 << PRTIM1))
2286:/usr/lib/avr/include/avr/power.h **** #define power_timer1_disable()  (PRR0 |= (uint8_t)(1 << PRTIM1))
2287:/usr/lib/avr/include/avr/power.h **** 
2288:/usr/lib/avr/include/avr/power.h **** #define power_timer2_enable()   (PRR0 &= (uint8_t)~(1 << PRTIM2))
2289:/usr/lib/avr/include/avr/power.h **** #define power_timer2_disable()  (PRR0 |= (uint8_t)(1 << PRTIM2))
2290:/usr/lib/avr/include/avr/power.h **** 
2291:/usr/lib/avr/include/avr/power.h **** #define power_twi_enable()      (PRR0 &= (uint8_t)~(1 << PRTWI))
2292:/usr/lib/avr/include/avr/power.h **** #define power_twi_disable()     (PRR0 |= (uint8_t)(1 << PRTWI))
2293:/usr/lib/avr/include/avr/power.h **** 
2294:/usr/lib/avr/include/avr/power.h **** #define power_all_enable()      (PRR0 &= (uint8_t)~((1<<PRADC)|(1<<PRSPI)|(1<<PRUSART0)|(1<<PRTIM0)
2295:/usr/lib/avr/include/avr/power.h **** #define power_all_disable()     (PRR0 |= (uint8_t)((1<<PRADC)|(1<<PRSPI)|(1<<PRUSART0)|(1<<PRTIM0)|
2296:/usr/lib/avr/include/avr/power.h **** 
2297:/usr/lib/avr/include/avr/power.h **** 
2298:/usr/lib/avr/include/avr/power.h **** #elif defined(__AVR_ATmega406__)
2299:/usr/lib/avr/include/avr/power.h **** 
2300:/usr/lib/avr/include/avr/power.h **** #define power_twi_enable()      (PRR0 &= (uint8_t)~(1 << PRTWI))
2301:/usr/lib/avr/include/avr/power.h **** #define power_twi_disable()     (PRR0 |= (uint8_t)(1 << PRTWI))
2302:/usr/lib/avr/include/avr/power.h **** 
2303:/usr/lib/avr/include/avr/power.h **** #define power_timer0_enable()   (PRR0 &= (uint8_t)~(1 << PRTIM0))
2304:/usr/lib/avr/include/avr/power.h **** #define power_timer0_disable()  (PRR0 |= (uint8_t)(1 << PRTIM0))
2305:/usr/lib/avr/include/avr/power.h **** 
2306:/usr/lib/avr/include/avr/power.h **** #define power_timer1_enable()   (PRR0 &= (uint8_t)~(1 << PRTIM1))
2307:/usr/lib/avr/include/avr/power.h **** #define power_timer1_disable()  (PRR0 |= (uint8_t)(1 << PRTIM1))
2308:/usr/lib/avr/include/avr/power.h **** 
2309:/usr/lib/avr/include/avr/power.h **** /* Voltage ADC */
2310:/usr/lib/avr/include/avr/power.h **** #define power_vadc_enable()     (PRR0 &= (uint8_t)~(1 << PRVADC))
2311:/usr/lib/avr/include/avr/power.h **** #define power_vadc_disable()    (PRR0 |= (uint8_t)(1 << PRVADC))
2312:/usr/lib/avr/include/avr/power.h **** 
2313:/usr/lib/avr/include/avr/power.h **** #define power_all_enable()      (PRR0 &= (uint8_t)~((1<<PRTWI)|(1<<PRTIM0)|(1<<PRTIM1)|(1<<PRVADC))
2314:/usr/lib/avr/include/avr/power.h **** #define power_all_disable()     (PRR0 |= (uint8_t)((1<<PRTWI)|(1<<PRTIM0)|(1<<PRTIM1)|(1<<PRVADC)))
2315:/usr/lib/avr/include/avr/power.h **** 
2316:/usr/lib/avr/include/avr/power.h **** 
2317:/usr/lib/avr/include/avr/power.h **** #elif defined(__AVR_ATmega48__) \
2318:/usr/lib/avr/include/avr/power.h **** || defined(__AVR_ATmega48A__) \
2319:/usr/lib/avr/include/avr/power.h **** || defined(__AVR_ATmega48PA__) \
2320:/usr/lib/avr/include/avr/power.h **** || defined(__AVR_ATmega48P__) \
2321:/usr/lib/avr/include/avr/power.h **** || defined(__AVR_ATmega88__) \
2322:/usr/lib/avr/include/avr/power.h **** || defined(__AVR_ATmega88A__) \
2323:/usr/lib/avr/include/avr/power.h **** || defined(__AVR_ATmega88P__) \
2324:/usr/lib/avr/include/avr/power.h **** || defined(__AVR_ATmega88PA__) \
2325:/usr/lib/avr/include/avr/power.h **** || defined(__AVR_ATmega168__) \
2326:/usr/lib/avr/include/avr/power.h **** || defined(__AVR_ATmega168A__) \
2327:/usr/lib/avr/include/avr/power.h **** || defined(__AVR_ATmega168P__) \
2328:/usr/lib/avr/include/avr/power.h **** || defined(__AVR_ATmega168PA__) \
2329:/usr/lib/avr/include/avr/power.h **** || defined(__AVR_ATmega328__) \
2330:/usr/lib/avr/include/avr/power.h **** || defined(__AVR_ATmega328P__) \
2331:/usr/lib/avr/include/avr/power.h **** || defined(__AVR_ATtiny441__) \
2332:/usr/lib/avr/include/avr/power.h **** || defined(__AVR_ATtiny828__) \
2333:/usr/lib/avr/include/avr/power.h **** || defined(__AVR_ATtiny841__) \
2334:/usr/lib/avr/include/avr/power.h **** || defined(__AVR_ATA6612C__) \
2335:/usr/lib/avr/include/avr/power.h **** || defined(__AVR_ATA6613C__) \
2336:/usr/lib/avr/include/avr/power.h **** || defined(__AVR_ATA6614Q__)  
2337:/usr/lib/avr/include/avr/power.h **** 
2338:/usr/lib/avr/include/avr/power.h **** #define power_adc_enable()      (PRR &= (uint8_t)~(1 << PRADC))
2339:/usr/lib/avr/include/avr/power.h **** #define power_adc_disable()     (PRR |= (uint8_t)(1 << PRADC))
2340:/usr/lib/avr/include/avr/power.h **** 
2341:/usr/lib/avr/include/avr/power.h **** #define power_spi_enable()      (PRR &= (uint8_t)~(1 << PRSPI))
2342:/usr/lib/avr/include/avr/power.h **** #define power_spi_disable()     (PRR |= (uint8_t)(1 << PRSPI))
2343:/usr/lib/avr/include/avr/power.h **** 
2344:/usr/lib/avr/include/avr/power.h **** #define power_usart0_enable()   (PRR &= (uint8_t)~(1 << PRUSART0))
2345:/usr/lib/avr/include/avr/power.h **** #define power_usart0_disable()  (PRR |= (uint8_t)(1 << PRUSART0))
2346:/usr/lib/avr/include/avr/power.h **** 
2347:/usr/lib/avr/include/avr/power.h **** #if defined(__AVR_ATtiny441__) \
2348:/usr/lib/avr/include/avr/power.h **** || defined(__AVR_ATtiny841__) 
2349:/usr/lib/avr/include/avr/power.h **** 
2350:/usr/lib/avr/include/avr/power.h **** #define power_usart1_enable()   (PRR &= (uint8_t)~(1 << PRUSART1))
2351:/usr/lib/avr/include/avr/power.h **** #define power_usart1_disable()  (PRR |= (uint8_t)(1 << PRUSART1))
2352:/usr/lib/avr/include/avr/power.h **** 
2353:/usr/lib/avr/include/avr/power.h **** #endif
2354:/usr/lib/avr/include/avr/power.h **** 
2355:/usr/lib/avr/include/avr/power.h **** #define power_timer0_enable()   (PRR &= (uint8_t)~(1 << PRTIM0))
2356:/usr/lib/avr/include/avr/power.h **** #define power_timer0_disable()  (PRR |= (uint8_t)(1 << PRTIM0))
2357:/usr/lib/avr/include/avr/power.h **** 
2358:/usr/lib/avr/include/avr/power.h **** #define power_timer1_enable()   (PRR &= (uint8_t)~(1 << PRTIM1))
2359:/usr/lib/avr/include/avr/power.h **** #define power_timer1_disable()  (PRR |= (uint8_t)(1 << PRTIM1))
2360:/usr/lib/avr/include/avr/power.h **** 
2361:/usr/lib/avr/include/avr/power.h **** #if !defined(__AVR_ATtiny828__)
2362:/usr/lib/avr/include/avr/power.h **** 
2363:/usr/lib/avr/include/avr/power.h **** #define power_timer2_enable()   (PRR &= (uint8_t)~(1 << PRTIM2))
2364:/usr/lib/avr/include/avr/power.h **** #define power_timer2_disable()  (PRR |= (uint8_t)(1 << PRTIM2))
2365:/usr/lib/avr/include/avr/power.h **** 
2366:/usr/lib/avr/include/avr/power.h **** #endif
2367:/usr/lib/avr/include/avr/power.h **** 
2368:/usr/lib/avr/include/avr/power.h **** #define power_twi_enable()      (PRR &= (uint8_t)~(1 << PRTWI))
2369:/usr/lib/avr/include/avr/power.h **** #define power_twi_disable()     (PRR |= (uint8_t)(1 << PRTWI))
2370:/usr/lib/avr/include/avr/power.h **** 
2371:/usr/lib/avr/include/avr/power.h **** #if defined(__AVR_ATtiny828__)
2372:/usr/lib/avr/include/avr/power.h **** 
2373:/usr/lib/avr/include/avr/power.h **** #define power_all_enable()      (PRR &= (uint8_t)~((1<<PRADC)|(1<<PRSPI)|(1<<PRUSART0)|(1<<PRTIM0)|
2374:/usr/lib/avr/include/avr/power.h **** #define power_all_disable()     (PRR |= (uint8_t)((1<<PRADC)|(1<<PRSPI)|(1<<PRUSART0)|(1<<PRTIM0)|(
2375:/usr/lib/avr/include/avr/power.h **** 
2376:/usr/lib/avr/include/avr/power.h **** #elif defined(__AVR_ATtiny441__) \
2377:/usr/lib/avr/include/avr/power.h **** || defined(__AVR_ATtiny841__) 
2378:/usr/lib/avr/include/avr/power.h **** 
2379:/usr/lib/avr/include/avr/power.h **** #define power_all_enable()	(PRR &= (uint8_t)~((1<<PRADC)|(1<<PRSPI)|(1<<PRUSART0)|(1<<PRUSART1)|(1<
2380:/usr/lib/avr/include/avr/power.h **** #define power_all_disable()      (PRR |= (uint8_t)((1<<PRADC)|(1<<PRSPI)|(1<<PRUSART0)|(1<<PRUSART1
2381:/usr/lib/avr/include/avr/power.h **** 
2382:/usr/lib/avr/include/avr/power.h **** #else
2383:/usr/lib/avr/include/avr/power.h **** 
2384:/usr/lib/avr/include/avr/power.h **** #define power_all_enable()      (PRR &= (uint8_t)~((1<<PRADC)|(1<<PRSPI)|(1<<PRUSART0)|(1<<PRTIM0)|
2385:/usr/lib/avr/include/avr/power.h **** #define power_all_disable()     (PRR |= (uint8_t)((1<<PRADC)|(1<<PRSPI)|(1<<PRUSART0)|(1<<PRTIM0)|(
2386:/usr/lib/avr/include/avr/power.h **** 
2387:/usr/lib/avr/include/avr/power.h **** #endif
2388:/usr/lib/avr/include/avr/power.h **** 
2389:/usr/lib/avr/include/avr/power.h **** #elif defined(__AVR_ATtiny48__) \
2390:/usr/lib/avr/include/avr/power.h **** || defined(__AVR_ATtiny88__)
2391:/usr/lib/avr/include/avr/power.h **** 
2392:/usr/lib/avr/include/avr/power.h **** #define power_adc_enable()      (PRR &= (uint8_t)~(1 << PRADC))
2393:/usr/lib/avr/include/avr/power.h **** #define power_adc_disable()     (PRR |= (uint8_t)(1 << PRADC))
2394:/usr/lib/avr/include/avr/power.h **** 
2395:/usr/lib/avr/include/avr/power.h **** #define power_spi_enable()      (PRR &= (uint8_t)~(1 << PRSPI))
2396:/usr/lib/avr/include/avr/power.h **** #define power_spi_disable()     (PRR |= (uint8_t)(1 << PRSPI))
2397:/usr/lib/avr/include/avr/power.h **** 
2398:/usr/lib/avr/include/avr/power.h **** #define power_timer0_enable()   (PRR &= (uint8_t)~(1 << PRTIM0))
2399:/usr/lib/avr/include/avr/power.h **** #define power_timer0_disable()  (PRR |= (uint8_t)(1 << PRTIM0))
2400:/usr/lib/avr/include/avr/power.h **** 
2401:/usr/lib/avr/include/avr/power.h **** #define power_timer1_enable()   (PRR &= (uint8_t)~(1 << PRTIM1))
2402:/usr/lib/avr/include/avr/power.h **** #define power_timer1_disable()  (PRR |= (uint8_t)(1 << PRTIM1))
2403:/usr/lib/avr/include/avr/power.h **** 
2404:/usr/lib/avr/include/avr/power.h **** #define power_twi_enable()      (PRR &= (uint8_t)~(1 << PRTWI))
2405:/usr/lib/avr/include/avr/power.h **** #define power_twi_disable()     (PRR |= (uint8_t)(1 << PRTWI))
2406:/usr/lib/avr/include/avr/power.h **** 
2407:/usr/lib/avr/include/avr/power.h **** #define power_all_enable()      (PRR &= (uint8_t)~((1<<PRADC)|(1<<PRSPI)|(1<<PRTIM0)|(1<<PRTIM1)|(1
2408:/usr/lib/avr/include/avr/power.h **** #define power_all_disable()     (PRR |= (uint8_t)((1<<PRADC)|(1<<PRSPI)|(1<<PRTIM0)|(1<<PRTIM1)|(1<
2409:/usr/lib/avr/include/avr/power.h **** 
2410:/usr/lib/avr/include/avr/power.h ****   
2411:/usr/lib/avr/include/avr/power.h **** #elif defined(__AVR_ATtiny24__) \
2412:/usr/lib/avr/include/avr/power.h **** || defined(__AVR_ATtiny24A__) \
2413:/usr/lib/avr/include/avr/power.h **** || defined(__AVR_ATtiny44__) \
2414:/usr/lib/avr/include/avr/power.h **** || defined(__AVR_ATtiny44A__) \
2415:/usr/lib/avr/include/avr/power.h **** || defined(__AVR_ATtiny84__) \
2416:/usr/lib/avr/include/avr/power.h **** || defined(__AVR_ATtiny84A__) \
2417:/usr/lib/avr/include/avr/power.h **** || defined(__AVR_ATtiny25__) \
2418:/usr/lib/avr/include/avr/power.h **** || defined(__AVR_ATtiny45__) \
2419:/usr/lib/avr/include/avr/power.h **** || defined(__AVR_ATtiny85__) \
2420:/usr/lib/avr/include/avr/power.h **** || defined(__AVR_ATtiny261__) \
2421:/usr/lib/avr/include/avr/power.h **** || defined(__AVR_ATtiny261A__) \
2422:/usr/lib/avr/include/avr/power.h **** || defined(__AVR_ATtiny461__) \
2423:/usr/lib/avr/include/avr/power.h **** || defined(__AVR_ATtiny461A__) \
2424:/usr/lib/avr/include/avr/power.h **** || defined(__AVR_ATtiny861__) \
2425:/usr/lib/avr/include/avr/power.h **** || defined(__AVR_ATtiny861A__) \
2426:/usr/lib/avr/include/avr/power.h **** || defined(__AVR_ATtiny43U__)
2427:/usr/lib/avr/include/avr/power.h **** 
2428:/usr/lib/avr/include/avr/power.h **** #define power_adc_enable()      (PRR &= (uint8_t)~(1 << PRADC))
2429:/usr/lib/avr/include/avr/power.h **** #define power_adc_disable()     (PRR |= (uint8_t)(1 << PRADC))
2430:/usr/lib/avr/include/avr/power.h **** 
2431:/usr/lib/avr/include/avr/power.h **** #define power_timer0_enable()   (PRR &= (uint8_t)~(1 << PRTIM0))
2432:/usr/lib/avr/include/avr/power.h **** #define power_timer0_disable()  (PRR |= (uint8_t)(1 << PRTIM0))
2433:/usr/lib/avr/include/avr/power.h **** 
2434:/usr/lib/avr/include/avr/power.h **** #define power_timer1_enable()   (PRR &= (uint8_t)~(1 << PRTIM1))
2435:/usr/lib/avr/include/avr/power.h **** #define power_timer1_disable()  (PRR |= (uint8_t)(1 << PRTIM1))
2436:/usr/lib/avr/include/avr/power.h **** 
2437:/usr/lib/avr/include/avr/power.h **** /* Universal Serial Interface */
2438:/usr/lib/avr/include/avr/power.h **** #define power_usi_enable()      (PRR &= (uint8_t)~(1 << PRUSI))
2439:/usr/lib/avr/include/avr/power.h **** #define power_usi_disable()     (PRR |= (uint8_t)(1 << PRUSI))
2440:/usr/lib/avr/include/avr/power.h **** 
2441:/usr/lib/avr/include/avr/power.h **** #define power_all_enable()      (PRR &= (uint8_t)~((1<<PRADC)|(1<<PRTIM0)|(1<<PRTIM1)|(1<<PRUSI)))
2442:/usr/lib/avr/include/avr/power.h **** #define power_all_disable()     (PRR |= (uint8_t)((1<<PRADC)|(1<<PRTIM0)|(1<<PRTIM1)|(1<<PRUSI)))
2443:/usr/lib/avr/include/avr/power.h **** 
2444:/usr/lib/avr/include/avr/power.h **** #elif defined(__AVR_ATmega1284__)
2445:/usr/lib/avr/include/avr/power.h **** 
2446:/usr/lib/avr/include/avr/power.h **** #define power_adc_enable()      (PRR0 &= (uint8_t)~(1 << PRADC))
2447:/usr/lib/avr/include/avr/power.h **** #define power_adc_disable()     (PRR0 |= (uint8_t)(1 << PRADC))
2448:/usr/lib/avr/include/avr/power.h **** 
2449:/usr/lib/avr/include/avr/power.h **** #define power_spi_enable()      (PRR0 &= (uint8_t)~(1 << PRSPI))
2450:/usr/lib/avr/include/avr/power.h **** #define power_spi_disable()     (PRR0 |= (uint8_t)(1 << PRSPI))
2451:/usr/lib/avr/include/avr/power.h **** 
2452:/usr/lib/avr/include/avr/power.h **** #define power_twi_enable()      (PRR0 &= (uint8_t)~(1 << PRTWI))
2453:/usr/lib/avr/include/avr/power.h **** #define power_twi_disable()     (PRR0 |= (uint8_t)(1 << PRTWI))
2454:/usr/lib/avr/include/avr/power.h **** 
2455:/usr/lib/avr/include/avr/power.h **** #define power_timer0_enable()   (PRR0 &= (uint8_t)~(1 << PRTIM0))
2456:/usr/lib/avr/include/avr/power.h **** #define power_timer0_disable()  (PRR0 |= (uint8_t)(1 << PRTIM0))
2457:/usr/lib/avr/include/avr/power.h **** 
2458:/usr/lib/avr/include/avr/power.h **** #define power_timer1_enable()   (PRR0 &= (uint8_t)~(1 << PRTIM1))
2459:/usr/lib/avr/include/avr/power.h **** #define power_timer1_disable()  (PRR0 |= (uint8_t)(1 << PRTIM1))
2460:/usr/lib/avr/include/avr/power.h **** 
2461:/usr/lib/avr/include/avr/power.h **** #define power_timer2_enable()   (PRR0 &= (uint8_t)~(1 << PRTIM2))
2462:/usr/lib/avr/include/avr/power.h **** #define power_timer2_disable()  (PRR0 |= (uint8_t)(1 << PRTIM2))
2463:/usr/lib/avr/include/avr/power.h **** 
2464:/usr/lib/avr/include/avr/power.h **** #define power_timer3_enable()   (PRR1 &= (uint8_t)~(1 << PRTIM3))
2465:/usr/lib/avr/include/avr/power.h **** #define power_timer3_disable()  (PRR1 |= (uint8_t)(1 << PRTIM3))
2466:/usr/lib/avr/include/avr/power.h **** 
2467:/usr/lib/avr/include/avr/power.h **** #define power_usart0_enable()   (PRR0 &= (uint8_t)~(1 << PRUSART0))
2468:/usr/lib/avr/include/avr/power.h **** #define power_usart0_disable()  (PRR0 |= (uint8_t)(1 << PRUSART0))
2469:/usr/lib/avr/include/avr/power.h **** 
2470:/usr/lib/avr/include/avr/power.h **** #define power_all_enable() \
2471:/usr/lib/avr/include/avr/power.h **** do{ \
2472:/usr/lib/avr/include/avr/power.h ****     PRR0 &= (uint8_t)~((1<<PRADC)|(1<<PRSPI)|(1<<PRTWI)|(1<<PRTIM0)|(1<<PRTIM1)|(1<<PRTIM2)|(1<<PRU
2473:/usr/lib/avr/include/avr/power.h ****     PRR1 &= (uint8_t)~(1<<PRTIM3); \
2474:/usr/lib/avr/include/avr/power.h **** }while(0)
2475:/usr/lib/avr/include/avr/power.h **** 
2476:/usr/lib/avr/include/avr/power.h **** #define power_all_disable() \
2477:/usr/lib/avr/include/avr/power.h **** do{ \
2478:/usr/lib/avr/include/avr/power.h ****     PRR0 |= (uint8_t)((1<<PRADC)|(1<<PRSPI)|(1<<PRTWI)|(1<<PRTIM0)|(1<<PRTIM1)|(1<<PRTIM2)|(1<<PRUS
2479:/usr/lib/avr/include/avr/power.h ****     PRR1 |= (uint8_t)(1<<PRTIM3); \
2480:/usr/lib/avr/include/avr/power.h **** }while(0)
2481:/usr/lib/avr/include/avr/power.h **** 
2482:/usr/lib/avr/include/avr/power.h **** #elif defined(__AVR_ATmega1284P__)
2483:/usr/lib/avr/include/avr/power.h **** 
2484:/usr/lib/avr/include/avr/power.h **** 
2485:/usr/lib/avr/include/avr/power.h **** #define power_adc_enable()      (PRR0 &= (uint8_t)~(1 << PRADC))
2486:/usr/lib/avr/include/avr/power.h **** #define power_adc_disable()     (PRR0 |= (uint8_t)(1 << PRADC))
2487:/usr/lib/avr/include/avr/power.h **** 
2488:/usr/lib/avr/include/avr/power.h **** #define power_spi_enable()      (PRR0 &= (uint8_t)~(1 << PRSPI))
2489:/usr/lib/avr/include/avr/power.h **** #define power_spi_disable()     (PRR0 |= (uint8_t)(1 << PRSPI))
2490:/usr/lib/avr/include/avr/power.h **** 
2491:/usr/lib/avr/include/avr/power.h **** #define power_twi_enable()      (PRR0 &= (uint8_t)~(1 << PRTWI))
2492:/usr/lib/avr/include/avr/power.h **** #define power_twi_disable()     (PRR0 |= (uint8_t)(1 << PRTWI))
2493:/usr/lib/avr/include/avr/power.h **** 
2494:/usr/lib/avr/include/avr/power.h **** #define power_timer0_enable()   (PRR0 &= (uint8_t)~(1 << PRTIM0))
2495:/usr/lib/avr/include/avr/power.h **** #define power_timer0_disable()  (PRR0 |= (uint8_t)(1 << PRTIM0))
2496:/usr/lib/avr/include/avr/power.h **** 
2497:/usr/lib/avr/include/avr/power.h **** #define power_timer1_enable()   (PRR0 &= (uint8_t)~(1 << PRTIM1))
2498:/usr/lib/avr/include/avr/power.h **** #define power_timer1_disable()  (PRR0 |= (uint8_t)(1 << PRTIM1))
2499:/usr/lib/avr/include/avr/power.h **** 
2500:/usr/lib/avr/include/avr/power.h **** #define power_timer2_enable()   (PRR0 &= (uint8_t)~(1 << PRTIM2))
2501:/usr/lib/avr/include/avr/power.h **** #define power_timer2_disable()  (PRR0 |= (uint8_t)(1 << PRTIM2))
2502:/usr/lib/avr/include/avr/power.h **** 
2503:/usr/lib/avr/include/avr/power.h **** #define power_timer3_enable()   (PRR1 &= (uint8_t)~(1 << PRTIM3))
2504:/usr/lib/avr/include/avr/power.h **** #define power_timer3_disable()  (PRR1 |= (uint8_t)(1 << PRTIM3))
2505:/usr/lib/avr/include/avr/power.h **** 
2506:/usr/lib/avr/include/avr/power.h **** #define power_usart0_enable()   (PRR0 &= (uint8_t)~(1 << PRUSART0))
2507:/usr/lib/avr/include/avr/power.h **** #define power_usart0_disable()  (PRR0 |= (uint8_t)(1 << PRUSART0))
2508:/usr/lib/avr/include/avr/power.h **** 
2509:/usr/lib/avr/include/avr/power.h **** #define power_usart1_enable()   (PRR0 &= (uint8_t)~(1 << PRUSART1))
2510:/usr/lib/avr/include/avr/power.h **** #define power_usart1_disable()  (PRR0 |= (uint8_t)(1 << PRUSART1))
2511:/usr/lib/avr/include/avr/power.h **** 
2512:/usr/lib/avr/include/avr/power.h **** #define power_all_enable() \
2513:/usr/lib/avr/include/avr/power.h **** do{ \
2514:/usr/lib/avr/include/avr/power.h ****     PRR0 &= (uint8_t)~((1<<PRADC)|(1<<PRSPI)|(1<<PRTWI)|(1<<PRTIM0)|(1<<PRTIM1)|(1<<PRTIM2)|(1<<PRU
2515:/usr/lib/avr/include/avr/power.h ****     PRR1 &= (uint8_t)~(1<<PRTIM3); \
2516:/usr/lib/avr/include/avr/power.h **** }while(0)
2517:/usr/lib/avr/include/avr/power.h **** 
2518:/usr/lib/avr/include/avr/power.h **** #define power_all_disable() \
2519:/usr/lib/avr/include/avr/power.h **** do{ \
2520:/usr/lib/avr/include/avr/power.h ****     PRR0 |= (uint8_t)((1<<PRADC)|(1<<PRSPI)|(1<<PRTWI)|(1<<PRTIM0)|(1<<PRTIM1)|(1<<PRTIM2)|(1<<PRUS
2521:/usr/lib/avr/include/avr/power.h ****     PRR1 |= (uint8_t)(1<<PRTIM3); \
2522:/usr/lib/avr/include/avr/power.h **** }while(0)
2523:/usr/lib/avr/include/avr/power.h **** 
2524:/usr/lib/avr/include/avr/power.h **** 
2525:/usr/lib/avr/include/avr/power.h **** #elif defined(__AVR_ATmega32HVB__) \
2526:/usr/lib/avr/include/avr/power.h **** || defined(__AVR_ATmega32HVBrevB__) \
2527:/usr/lib/avr/include/avr/power.h **** || defined(__AVR_ATmega16HVB__) \
2528:/usr/lib/avr/include/avr/power.h **** || defined(__AVR_ATmega16HVBrevB__)
2529:/usr/lib/avr/include/avr/power.h **** 
2530:/usr/lib/avr/include/avr/power.h **** 
2531:/usr/lib/avr/include/avr/power.h **** #define power_twi_enable()      (PRR0 &= (uint8_t)~(1 << PRTWI))
2532:/usr/lib/avr/include/avr/power.h **** #define power_twi_disable()     (PRR0 |= (uint8_t)(1 << PRTWI))
2533:/usr/lib/avr/include/avr/power.h **** 
2534:/usr/lib/avr/include/avr/power.h **** #define power_timer0_enable()   (PRR0 &= (uint8_t)~(1 << PRTIM0))
2535:/usr/lib/avr/include/avr/power.h **** #define power_timer0_disable()  (PRR0 |= (uint8_t)(1 << PRTIM0))
2536:/usr/lib/avr/include/avr/power.h **** 
2537:/usr/lib/avr/include/avr/power.h **** #define power_timer1_enable()   (PRR0 &= (uint8_t)~(1 << PRTIM1))
2538:/usr/lib/avr/include/avr/power.h **** #define power_timer1_disable()  (PRR0 |= (uint8_t)(1 << PRTIM1))
2539:/usr/lib/avr/include/avr/power.h **** 
2540:/usr/lib/avr/include/avr/power.h **** /* Voltage ADC */
2541:/usr/lib/avr/include/avr/power.h **** #define power_vadc_enable()     (PRR0 &= (uint8_t)~(1 << PRVADC))
2542:/usr/lib/avr/include/avr/power.h **** #define power_vadc_disable()    (PRR0 |= (uint8_t)(1 << PRVADC))
2543:/usr/lib/avr/include/avr/power.h **** 
2544:/usr/lib/avr/include/avr/power.h **** #define power_spi_enable()      (PRR0 &= (uint8_t)~(1 << PRSPI))
2545:/usr/lib/avr/include/avr/power.h **** #define power_spi_disable()     (PRR0 |= (uint8_t)(1 << PRSPI))
2546:/usr/lib/avr/include/avr/power.h **** 
2547:/usr/lib/avr/include/avr/power.h **** #define power_vrm_enable()      (PRR0 &= (uint8_t)~(1 << PRVRM))
2548:/usr/lib/avr/include/avr/power.h **** #define power_vrm_disable()     (PRR0 |= (uint8_t)(1 << PRVRM))
2549:/usr/lib/avr/include/avr/power.h **** 
2550:/usr/lib/avr/include/avr/power.h **** #define power_all_enable()      (PRR0 &= (uint8_t)~((1<<PRTWI)|(1<<PRTIM0)|(1<<PRTIM1)|(1<<PRVADC)|
2551:/usr/lib/avr/include/avr/power.h **** #define power_all_disable()     (PRR0 |= (uint8_t)((1<<PRTWI)|(1<<PRTIM0)|(1<<PRTIM1)|(1<<PRVADC)|(
2552:/usr/lib/avr/include/avr/power.h **** 
2553:/usr/lib/avr/include/avr/power.h **** 
2554:/usr/lib/avr/include/avr/power.h **** #elif defined (__AVR_ATA5790__) \
2555:/usr/lib/avr/include/avr/power.h **** || defined (__AVR_ATA5790N__) \
2556:/usr/lib/avr/include/avr/power.h **** || defined (__AVR_ATA5795__)
2557:/usr/lib/avr/include/avr/power.h **** 
2558:/usr/lib/avr/include/avr/power.h **** // Enable the voltage monitor 
2559:/usr/lib/avr/include/avr/power.h **** #define power_vmonitor_enable()          (PRR0 &= (uint8_t)~(1 << PRVM))
2560:/usr/lib/avr/include/avr/power.h **** #define power_vmonitor_disable()         (PRR0 |= (uint8_t)(1 << PRVM))
2561:/usr/lib/avr/include/avr/power.h **** 
2562:/usr/lib/avr/include/avr/power.h **** #define power_irdriver_enable()          (PRR0 &= (uint8_t)~(1 << PRDS))
2563:/usr/lib/avr/include/avr/power.h **** #define power_irdriver_disable()         (PRR0 |= (uint8_t)(1 << PRDS))
2564:/usr/lib/avr/include/avr/power.h **** 
2565:/usr/lib/avr/include/avr/power.h **** #define power_crypto_enable()            (PRR0 &= (uint8_t)~(1 << PRCU))
2566:/usr/lib/avr/include/avr/power.h **** #define power_crypto_disable()           (PRR0 |= (uint8_t)(1 << PRCU))
2567:/usr/lib/avr/include/avr/power.h **** 
2568:/usr/lib/avr/include/avr/power.h **** #define power_timermodulator_enable()    (PRR0 &= (uint8_t)~(1 << PRTM))
2569:/usr/lib/avr/include/avr/power.h **** #define power_timermodulator_disable()   (PRR0 |= (uint8_t)(1 << PRTM))
2570:/usr/lib/avr/include/avr/power.h **** 
2571:/usr/lib/avr/include/avr/power.h **** #define power_timer1_enable()            (PRR0 &= (uint8_t)~(1 << PRT1))
2572:/usr/lib/avr/include/avr/power.h **** #define power_timer1_disable()           (PRR0 |= (uint8_t)(1 << PRT1))
2573:/usr/lib/avr/include/avr/power.h **** 
2574:/usr/lib/avr/include/avr/power.h **** #define power_timer2_enable()            (PRR0 &= (uint8_t)~(1 << PRT2))
2575:/usr/lib/avr/include/avr/power.h **** #define power_timer2_disable()           (PRR0 |= (uint8_t)(1 << PRT2))
2576:/usr/lib/avr/include/avr/power.h **** 
2577:/usr/lib/avr/include/avr/power.h **** #define power_timer3_enable()            (PRR0 &= (uint8_t)~(1 << PRT3))
2578:/usr/lib/avr/include/avr/power.h **** #define power_timer3_disable()           (PRR0 |= (uint8_t)(1 << PRT3))
2579:/usr/lib/avr/include/avr/power.h **** 
2580:/usr/lib/avr/include/avr/power.h **** #define power_spi_enable()               (PRR1 &= (uint8_t)~(1 << PRSPI))
2581:/usr/lib/avr/include/avr/power.h **** #define power_spi_disable()              (PRR1 |= (uint8_t)(1 << PRSPI))
2582:/usr/lib/avr/include/avr/power.h **** 
2583:/usr/lib/avr/include/avr/power.h **** #define power_cinterface_enable()        (PRR1 &= (uint8_t)~(1 << PRCI))
2584:/usr/lib/avr/include/avr/power.h **** #define power_cinterface_disable()       (PRR1 |= (uint8_t)(1 << PRCI))
2585:/usr/lib/avr/include/avr/power.h **** 
2586:/usr/lib/avr/include/avr/power.h **** #if defined(__AVR_ATA5790__) \
2587:/usr/lib/avr/include/avr/power.h **** || defined(__AVR_ATA5790N__)
2588:/usr/lib/avr/include/avr/power.h **** 
2589:/usr/lib/avr/include/avr/power.h **** #define power_lfreceiver_enable()        (PRR0 &= (uint8_t)~(1 << PRLFR))            
2590:/usr/lib/avr/include/avr/power.h **** #define power_lfreceiver_disable()       (PRR0 |= (uint8_t)(1 << PRLFR))            
2591:/usr/lib/avr/include/avr/power.h **** 
2592:/usr/lib/avr/include/avr/power.h **** #define power_all_enable() \
2593:/usr/lib/avr/include/avr/power.h **** do{ \
2594:/usr/lib/avr/include/avr/power.h ****     PRR0 &= (uint8_t)~((1<<PRVM)|(1<<PRDS)|(1<<PRCU)|(1<<PRTM)|(1<<PRT3)|(1<<PRT2)|(1<<PRT1)|(1<<PR
2595:/usr/lib/avr/include/avr/power.h ****     PRR1 &= (uint8_t)~((1<<PRSPI)|(1<<PRCI)); \
2596:/usr/lib/avr/include/avr/power.h **** }while(0)
2597:/usr/lib/avr/include/avr/power.h **** 
2598:/usr/lib/avr/include/avr/power.h **** #define power_all_disable() \
2599:/usr/lib/avr/include/avr/power.h **** do{ \
2600:/usr/lib/avr/include/avr/power.h ****     PRR0 |= (uint8_t)((1<<PRVM)|(1<<PRDS)|(1<<PRCU)|(1<<PRTM)|(1<<PRT3)|(1<<PRT2)|(1<<PRT1)|(1<<PRL
2601:/usr/lib/avr/include/avr/power.h ****     PRR1 |= (uint8_t)((1<<PRSPI)|(1<<PRCI)); \
2602:/usr/lib/avr/include/avr/power.h **** }while(0)
2603:/usr/lib/avr/include/avr/power.h **** 
2604:/usr/lib/avr/include/avr/power.h **** #elif defined(__AVR_ATA5795__)
2605:/usr/lib/avr/include/avr/power.h **** 
2606:/usr/lib/avr/include/avr/power.h **** #define power_all_enable() \
2607:/usr/lib/avr/include/avr/power.h **** do{ \
2608:/usr/lib/avr/include/avr/power.h ****     PRR0 &= (uint8_t)~((1<<PRVM)|(1<<PRDS)|(1<<PRCU)|(1<<PRTM)|(1<<PRT3)|(1<<PRT2)|(1<<PRT1)); \
2609:/usr/lib/avr/include/avr/power.h ****     PRR1 &= (uint8_t)~((1<<PRSPI)|(1<<PRCI)); \
2610:/usr/lib/avr/include/avr/power.h **** }while(0)
2611:/usr/lib/avr/include/avr/power.h **** 
2612:/usr/lib/avr/include/avr/power.h **** #define power_all_disable() \
2613:/usr/lib/avr/include/avr/power.h **** do{ \
2614:/usr/lib/avr/include/avr/power.h ****     PRR0 |= (uint8_t)((1<<PRVM)|(1<<PRDS)|(1<<PRCU)|(1<<PRTM)|(1<<PRT3)|(1<<PRT2)|(1<<PRT1)); \
2615:/usr/lib/avr/include/avr/power.h ****     PRR1 |= (uint8_t)((1<<PRSPI)|(1<<PRCI)); \
2616:/usr/lib/avr/include/avr/power.h **** }while(0)
2617:/usr/lib/avr/include/avr/power.h **** 
2618:/usr/lib/avr/include/avr/power.h **** #endif
2619:/usr/lib/avr/include/avr/power.h **** 
2620:/usr/lib/avr/include/avr/power.h **** #elif defined(__AVR_ATA5831__) \
2621:/usr/lib/avr/include/avr/power.h **** || defined(__AVR_ATA5702M322__) \
2622:/usr/lib/avr/include/avr/power.h **** || defined(__AVR_ATA5782__)
2623:/usr/lib/avr/include/avr/power.h **** 
2624:/usr/lib/avr/include/avr/power.h **** #if defined(__AVR_ATA5702M322__) 
2625:/usr/lib/avr/include/avr/power.h **** 
2626:/usr/lib/avr/include/avr/power.h **** #define power_twi_enable()              (PRR0 &= (uint8_t)~(1 << PRTWI))
2627:/usr/lib/avr/include/avr/power.h **** #define power_twi_disable()             (PRR0 &= (uint8_t)(1 << PRTWI))
2628:/usr/lib/avr/include/avr/power.h **** 
2629:/usr/lib/avr/include/avr/power.h **** #define power_crypto_enable()            (PRR0 &= (uint8_t)~(1 << PRCU))
2630:/usr/lib/avr/include/avr/power.h **** #define power_crypto_disable()           (PRR0 |= (uint8_t)(1 << PRCU))
2631:/usr/lib/avr/include/avr/power.h **** 
2632:/usr/lib/avr/include/avr/power.h **** #endif
2633:/usr/lib/avr/include/avr/power.h **** 
2634:/usr/lib/avr/include/avr/power.h **** #define power_clock_output_enable()     (PRR0 &= (uint8_t)~(1 << PRCO))
2635:/usr/lib/avr/include/avr/power.h **** #define power_clock_output_disable()    (PRR0 |= (uint8_t)(1 << PRCO))
2636:/usr/lib/avr/include/avr/power.h **** 
2637:/usr/lib/avr/include/avr/power.h **** #define power_voltage_monitor_enable()  (PRR0 &= (uint8_t)~(1 << PRVM))
2638:/usr/lib/avr/include/avr/power.h **** #define power_voltage_monitor_disable() (PRR0 |= (uint8_t)(1 << PRVM))
2639:/usr/lib/avr/include/avr/power.h **** 
2640:/usr/lib/avr/include/avr/power.h **** #define power_crc_enable()              (PRR0 &= (uint8_t)~(1 << PRCRC))
2641:/usr/lib/avr/include/avr/power.h **** #define power_crc_disable()             (PRR0 |= (uint8_t)(1 << PRCRC))
2642:/usr/lib/avr/include/avr/power.h **** 
2643:/usr/lib/avr/include/avr/power.h **** #define power_transmit_dsp_control_enable()     (PRR0 &= (uint8_t)~(1 << PRTXDC))
2644:/usr/lib/avr/include/avr/power.h **** #define power_transmit_dsp_control_disable()    (PRR0 |= (uint8_t)(1 << PRTXDC))
2645:/usr/lib/avr/include/avr/power.h **** 
2646:/usr/lib/avr/include/avr/power.h **** #if defined(__AVR_ATA5831__) \
2647:/usr/lib/avr/include/avr/power.h **** || defined(__AVR_ATA5782__)
2648:/usr/lib/avr/include/avr/power.h **** 
2649:/usr/lib/avr/include/avr/power.h **** #define power_receive_dsp_control_enable()      (PRR0 &= (uint8_t)~(1 << PRRXDC))
2650:/usr/lib/avr/include/avr/power.h **** #define power_receive_dsp_control_disable()     (PRR0 |= (uint8_t)(1 << PRRXDC))
2651:/usr/lib/avr/include/avr/power.h **** 
2652:/usr/lib/avr/include/avr/power.h **** #endif
2653:/usr/lib/avr/include/avr/power.h **** 
2654:/usr/lib/avr/include/avr/power.h **** #define power_spi_enable()              (PRR0 &= (uint8_t)~(1 << PRSPI))
2655:/usr/lib/avr/include/avr/power.h **** #define power_spi_disable()             (PRR0 |= (uint8_t)(1 << PRSPI))
2656:/usr/lib/avr/include/avr/power.h **** 
2657:/usr/lib/avr/include/avr/power.h **** #if defined (__AVR_ATA5702M322__)
2658:/usr/lib/avr/include/avr/power.h **** 
2659:/usr/lib/avr/include/avr/power.h **** #define power_cinterface_enable()        (PRR1 &= (uint8_t)~(1 << PRCI))
2660:/usr/lib/avr/include/avr/power.h **** #define power_cinterface_disable()       (PRR1 |= (uint8_t)(1 << PRCI))
2661:/usr/lib/avr/include/avr/power.h **** 
2662:/usr/lib/avr/include/avr/power.h **** #define power_lfreceiver_enable()        (PRR1 &= (uint8_t)~(1 << PRLFR))            
2663:/usr/lib/avr/include/avr/power.h **** #define power_lfreceiver_disable()       (PRR1 |= (uint8_t)(1 << PRLFR))            
2664:/usr/lib/avr/include/avr/power.h **** 
2665:/usr/lib/avr/include/avr/power.h **** #endif
2666:/usr/lib/avr/include/avr/power.h **** 
2667:/usr/lib/avr/include/avr/power.h **** #define power_timer1_enable()           (PRR1 &= (uint8_t)~(1 << PRT1))
2668:/usr/lib/avr/include/avr/power.h **** #define power_timer1_disable()          (PRR1 |= (uint8_t)(1 << PRT1))
2669:/usr/lib/avr/include/avr/power.h **** 
2670:/usr/lib/avr/include/avr/power.h **** #define power_timer2_enable()           (PRR1 &= (uint8_t)~(1 << PRT2))
2671:/usr/lib/avr/include/avr/power.h **** #define power_timer2_disable()          (PRR1 |= (uint8_t)(1 << PRT2))
2672:/usr/lib/avr/include/avr/power.h **** 
2673:/usr/lib/avr/include/avr/power.h **** #define power_timer3_enable()           (PRR1 &= (uint8_t)~(1 << PRT3))
2674:/usr/lib/avr/include/avr/power.h **** #define power_timer3_disable()          (PRR1 |= (uint8_t)(1 << PRT3))
2675:/usr/lib/avr/include/avr/power.h **** 
2676:/usr/lib/avr/include/avr/power.h **** #define power_timer4_enable()           (PRR1 &= (uint8_t)~(1 << PRT4))
2677:/usr/lib/avr/include/avr/power.h **** #define power_timer4_disable()          (PRR1 |= (uint8_t)(1 << PRT4))
2678:/usr/lib/avr/include/avr/power.h **** 
2679:/usr/lib/avr/include/avr/power.h **** #define power_timer5_enable()           (PRR1 &= (uint8_t)~(1 << PRT5))
2680:/usr/lib/avr/include/avr/power.h **** #define power_timer5_disable()          (PRR1 |= (uint8_t)(1 << PRT5))
2681:/usr/lib/avr/include/avr/power.h **** 
2682:/usr/lib/avr/include/avr/power.h **** #define power_sequencer_state_machine_enable()  (PRR2 &= (uint8_t)~(1 << PRSSM))
2683:/usr/lib/avr/include/avr/power.h **** #define power_sequencer_state_machine_disable() (PRR2 |= (uint8_t)(1 << PRSSM))
2684:/usr/lib/avr/include/avr/power.h **** 
2685:/usr/lib/avr/include/avr/power.h **** #define power_tx_modulator_enable()     (PRR2 &= (uint8_t)~(1 << PRTM))
2686:/usr/lib/avr/include/avr/power.h **** #define power_tx_modulator_disable()    (PRR2 |= (uint8_t)(1 << PRTM))
2687:/usr/lib/avr/include/avr/power.h **** 
2688:/usr/lib/avr/include/avr/power.h **** #if defined(__AVR_ATA5831__) \
2689:/usr/lib/avr/include/avr/power.h **** || defined(__AVR_ATA5782__)
2690:/usr/lib/avr/include/avr/power.h **** 
2691:/usr/lib/avr/include/avr/power.h **** #define power_rssi_buffer_enable()      (PRR2 &= (uint8_t)~(1 << PRRS))
2692:/usr/lib/avr/include/avr/power.h **** #define power_rssi_buffer_disable()     (PRR2 |= (uint8_t)(1 << PRRS))
2693:/usr/lib/avr/include/avr/power.h **** 
2694:/usr/lib/avr/include/avr/power.h **** #define power_id_scan_enable()          (PRR2 &= (uint8_t)~(1 << PRIDS))
2695:/usr/lib/avr/include/avr/power.h **** #define power_id_scan_disable()         (PRR2 |= (uint8_t)(1 << PRIDS))
2696:/usr/lib/avr/include/avr/power.h **** 
2697:/usr/lib/avr/include/avr/power.h **** #define power_rx_buffer_A_enable()      (PRR2 &= (uint8_t)~(1 << PRXA))
2698:/usr/lib/avr/include/avr/power.h **** #define power_rx_buffer_A_disable()     (PRR2 |= (uint8_t)(1 << PRXA))
2699:/usr/lib/avr/include/avr/power.h **** 
2700:/usr/lib/avr/include/avr/power.h **** #define power_rx_buffer_B_enable()      (PRR2 &= (uint8_t)~(1 << PRXB))
2701:/usr/lib/avr/include/avr/power.h **** #define power_rx_buffer_B_disable()     (PRR2 |= (uint8_t)(1 << PRXB))
2702:/usr/lib/avr/include/avr/power.h **** 
2703:/usr/lib/avr/include/avr/power.h **** #endif
2704:/usr/lib/avr/include/avr/power.h **** 
2705:/usr/lib/avr/include/avr/power.h **** #define power_data_fifo_enable()        (PRR2 &= (uint8_t)~(1 << PRDF))
2706:/usr/lib/avr/include/avr/power.h **** #define power_data_fifo_disable()       (PRR2 |= (uint8_t)(1 << PRDF))
2707:/usr/lib/avr/include/avr/power.h **** 
2708:/usr/lib/avr/include/avr/power.h **** #define power_preamble_rssi_fifo_enable()       (PRR2 &= (uint8_t)~(1 << PRSF))
2709:/usr/lib/avr/include/avr/power.h **** #define power_preamble_rssi_fifo_disable()      (PRR2 |= (uint8_t)(1 << PRSF))
2710:/usr/lib/avr/include/avr/power.h **** 
2711:/usr/lib/avr/include/avr/power.h **** #define power_rx_buffer_A_enable()      (PRR2 &= (uint8_t)~(1 << PRXA))
2712:/usr/lib/avr/include/avr/power.h **** #define power_rx_buffer_A_disable()     (PRR2 |= (uint8_t)(1 << PRXA))
2713:/usr/lib/avr/include/avr/power.h **** 
2714:/usr/lib/avr/include/avr/power.h **** #define power_rx_buffer_B_enable()      (PRR2 &= (uint8_t)~(1 << PRXB))
2715:/usr/lib/avr/include/avr/power.h **** #define power_rx_buffer_B_disable()     (PRR2 |= (uint8_t)(1 << PRXB))
2716:/usr/lib/avr/include/avr/power.h **** 
2717:/usr/lib/avr/include/avr/power.h **** #if defined(__AVR_ATA5831__) \
2718:/usr/lib/avr/include/avr/power.h **** || defined(__AVR_ATA5782__)
2719:/usr/lib/avr/include/avr/power.h **** 
2720:/usr/lib/avr/include/avr/power.h **** #define power_all_enable() \
2721:/usr/lib/avr/include/avr/power.h **** do{ \
2722:/usr/lib/avr/include/avr/power.h ****     PRR0 &= (uint8_t)~((1 << PRCO) | (1 << PRVM) | (1 << PRCRC) | (1 << PRTXDC) | (1 << PRRXDC) | (
2723:/usr/lib/avr/include/avr/power.h ****     PRR1 &= (uint8_t)~((1 << PRT1) | (1 << PRT2) | (1 << PRT3) | (1 << PRT4) | (1 << PRT5)); \
2724:/usr/lib/avr/include/avr/power.h ****     PRR2 &= (uint8_t)~((1 << PRSSM) | (1 << PRTM) | (1 << PRRS) | (1 << PRIDS) | (1 << PRDF) | (1 <
2725:/usr/lib/avr/include/avr/power.h **** }while(0)
2726:/usr/lib/avr/include/avr/power.h **** 
2727:/usr/lib/avr/include/avr/power.h **** #define power_all_disable() \
2728:/usr/lib/avr/include/avr/power.h **** do{ \
2729:/usr/lib/avr/include/avr/power.h ****     PRR0 |= (uint8_t)((1 << PRCO) | (1 << PRVM) | (1 << PRCRC) | (1 << PRTXDC) | (1 << PRRXDC) | (1
2730:/usr/lib/avr/include/avr/power.h ****     PRR1 |= (uint8_t)((1 << PRT1) | (1 << PRT2) | (1 << PRT3) | (1 << PRT4) | (1 << PRT5)); \
2731:/usr/lib/avr/include/avr/power.h ****     PRR2 |= (uint8_t)((1 << PRSSM) | (1 << PRTM) | (1 << PRRS) | (1 << PRIDS) | (1 << PRDF) | (1 <<
2732:/usr/lib/avr/include/avr/power.h **** }while(0)
2733:/usr/lib/avr/include/avr/power.h **** 
2734:/usr/lib/avr/include/avr/power.h **** #elif defined (__AVR_ATA5702M322__)
2735:/usr/lib/avr/include/avr/power.h **** 
2736:/usr/lib/avr/include/avr/power.h **** #define power_all_enable() \
2737:/usr/lib/avr/include/avr/power.h **** do{ \
2738:/usr/lib/avr/include/avr/power.h ****     PRR0 &= (uint8_t)~((1 << PRTWI) | (1 << PRCU) | (1 << PRCO) | (1 << PRVM) | (1 << PRCRC) | (1 <
2739:/usr/lib/avr/include/avr/power.h ****     PRR1 &= (uint8_t)~((1 << PRCI)  | (1 << PRLFR)| (1 << PRT1) | (1 << PRT2) | (1 << PRT3) | (1 <<
2740:/usr/lib/avr/include/avr/power.h ****     PRR2 &= (uint8_t)~((1 << PRSSM) | (1 << PRTM) | (1 << PRDF) | (1 << PRSF)); \
2741:/usr/lib/avr/include/avr/power.h **** }while(0)
2742:/usr/lib/avr/include/avr/power.h **** 
2743:/usr/lib/avr/include/avr/power.h **** #define power_all_disable() \
2744:/usr/lib/avr/include/avr/power.h **** do{ \
2745:/usr/lib/avr/include/avr/power.h ****     PRR0 &= (uint8_t)((1 << PRTWI) | (1 << PRCU) | (1 << PRCO) | (1 << PRVM) | (1 << PRCRC) | (1 <<
2746:/usr/lib/avr/include/avr/power.h ****     PRR1 &= (uint8_t)((1 << PRCI)  | (1 << PRLFR)| (1 << PRT1) | (1 << PRT2) | (1 << PRT3) | (1 << 
2747:/usr/lib/avr/include/avr/power.h ****     PRR2 &= (uint8_t)((1 << PRSSM) | (1 << PRTM) | (1 << PRDF) | (1 << PRSF)); \
2748:/usr/lib/avr/include/avr/power.h **** }while(0)
2749:/usr/lib/avr/include/avr/power.h **** 
2750:/usr/lib/avr/include/avr/power.h **** #endif
2751:/usr/lib/avr/include/avr/power.h **** 
2752:/usr/lib/avr/include/avr/power.h **** #elif defined(__AVR_ATmega64HVE__) \
2753:/usr/lib/avr/include/avr/power.h **** || defined(__AVR_ATmega64HVE2__) 
2754:/usr/lib/avr/include/avr/power.h **** 
2755:/usr/lib/avr/include/avr/power.h **** #define power_lin_enable()      (PRR0 &= (uint8_t)~(1 << PRLIN))
2756:/usr/lib/avr/include/avr/power.h **** #define power_lin_disable()     (PRR0 |= (uint8_t)(1 << PRLIN))
2757:/usr/lib/avr/include/avr/power.h **** 
2758:/usr/lib/avr/include/avr/power.h **** #define power_spi_enable()      (PRR0 &= (uint8_t)~(1 << PRSPI))
2759:/usr/lib/avr/include/avr/power.h **** #define power_spi_disable()     (PRR0 |= (uint8_t)(1 << PRSPI))
2760:/usr/lib/avr/include/avr/power.h **** 
2761:/usr/lib/avr/include/avr/power.h **** #define power_timer0_enable()   (PRR0 &= (uint8_t)~(1 << PRTIM0))
2762:/usr/lib/avr/include/avr/power.h **** #define power_timer0_disable()  (PRR0 |= (uint8_t)(1 << PRTIM0))
2763:/usr/lib/avr/include/avr/power.h **** 
2764:/usr/lib/avr/include/avr/power.h **** #define power_timer1_enable()   (PRR0 &= (uint8_t)~(1 << PRTIM1))
2765:/usr/lib/avr/include/avr/power.h **** #define power_timer1_disable()  (PRR0 |= (uint8_t)(1 << PRTIM1))
2766:/usr/lib/avr/include/avr/power.h **** 
2767:/usr/lib/avr/include/avr/power.h **** #define power_all_enable()      (PRR0 &= (uint8_t)~((1<<PRLIN)|(1<<PRSPI)|(1<<PRTIM0)|(1<<PRTIM1)))
2768:/usr/lib/avr/include/avr/power.h **** #define power_all_disable()     (PRR0 |= (uint8_t)((1<<PRLIN)|(1<<PRSPI)|(1<<PRTIM0)|(1<<PRTIM1)))
2769:/usr/lib/avr/include/avr/power.h **** 
2770:/usr/lib/avr/include/avr/power.h **** #elif defined(__AVR_ATmega16M1__) \
2771:/usr/lib/avr/include/avr/power.h **** || defined(__AVR_ATmega32C1__) \
2772:/usr/lib/avr/include/avr/power.h **** || defined(__AVR_ATmega32M1__) \
2773:/usr/lib/avr/include/avr/power.h **** || defined(__AVR_ATmega64C1__) \
2774:/usr/lib/avr/include/avr/power.h **** || defined(__AVR_ATmega64M1__)
2775:/usr/lib/avr/include/avr/power.h **** 
2776:/usr/lib/avr/include/avr/power.h **** #define power_adc_enable()      (PRR &= (uint8_t)~(1 << PRADC))
2777:/usr/lib/avr/include/avr/power.h **** #define power_adc_disable()     (PRR |= (uint8_t)(1 << PRADC))
2778:/usr/lib/avr/include/avr/power.h **** 
2779:/usr/lib/avr/include/avr/power.h **** #define power_lin_enable()      (PRR &= (uint8_t)~(1 << PRLIN))
2780:/usr/lib/avr/include/avr/power.h **** #define power_lin_disable()     (PRR |= (uint8_t)(1 << PRLIN))
2781:/usr/lib/avr/include/avr/power.h **** 
2782:/usr/lib/avr/include/avr/power.h **** #define power_spi_enable()      (PRR &= (uint8_t)~(1 << PRSPI))
2783:/usr/lib/avr/include/avr/power.h **** #define power_spi_disable()     (PRR |= (uint8_t)(1 << PRSPI))
2784:/usr/lib/avr/include/avr/power.h **** 
2785:/usr/lib/avr/include/avr/power.h **** #define power_timer0_enable()   (PRR &= (uint8_t)~(1 << PRTIM0))
2786:/usr/lib/avr/include/avr/power.h **** #define power_timer0_disable()  (PRR |= (uint8_t)(1 << PRTIM0))
2787:/usr/lib/avr/include/avr/power.h **** 
2788:/usr/lib/avr/include/avr/power.h **** #define power_timer1_enable()   (PRR &= (uint8_t)~(1 << PRTIM1))
2789:/usr/lib/avr/include/avr/power.h **** #define power_timer1_disable()  (PRR |= (uint8_t)(1 << PRTIM1))
2790:/usr/lib/avr/include/avr/power.h **** 
2791:/usr/lib/avr/include/avr/power.h **** #define power_psc_enable()      (PRR &= (uint8_t)~(1 << PRPSC))
2792:/usr/lib/avr/include/avr/power.h **** #define power_psc_disable()     (PRR |= (uint8_t)(1 << PRPSC))
2793:/usr/lib/avr/include/avr/power.h **** 
2794:/usr/lib/avr/include/avr/power.h **** #define power_can_enable()      (PRR &= (uint8_t)~(1 << PRCAN))
2795:/usr/lib/avr/include/avr/power.h **** #define power_can_disable()     (PRR |= (uint8_t)(1 << PRCAN))
2796:/usr/lib/avr/include/avr/power.h **** 
2797:/usr/lib/avr/include/avr/power.h **** #define power_all_enable()      (PRR &= (uint8_t)~((1<<PRADC)|(1<<PRLIN)|(1<<PRSPI)|(1<<PRTIM0)|(1<
2798:/usr/lib/avr/include/avr/power.h **** #define power_all_disable()     (PRR |= (uint8_t)((1<<PRADC)|(1<<PRLIN)|(1<<PRSPI)|(1<<PRTIM0)|(1<<
2799:/usr/lib/avr/include/avr/power.h **** 
2800:/usr/lib/avr/include/avr/power.h **** 
2801:/usr/lib/avr/include/avr/power.h **** #elif defined(__AVR_ATtiny167__) \
2802:/usr/lib/avr/include/avr/power.h **** || defined(__AVR_ATtiny87__) \
2803:/usr/lib/avr/include/avr/power.h **** || defined(__AVR_ATA5505__) \
2804:/usr/lib/avr/include/avr/power.h **** || defined(__AVR_ATA5272__) \
